	.file	"c++11.cpp"
# GNU C++11 (GCC) version 7.3.1 20180303 (Red Hat 7.3.1-5) (x86_64-redhat-linux)
#	compiled by GNU C version 7.3.1 20180303 (Red Hat 7.3.1-5), GMP version 6.0.0, MPFR version 3.1.1, MPC version 1.0.1, isl version none
# GGC heuristics: --param ggc-min-expand=96 --param ggc-min-heapsize=124463
# options passed:  -fpreprocessed c++11.i -mtune=generic -march=x86-64
# -auxbase-strip c++11.s -std=c++11 -fverbose-asm
# options enabled:  -faggressive-loop-optimizations
# -fasynchronous-unwind-tables -fauto-inc-dec -fchkp-check-incomplete-type
# -fchkp-check-read -fchkp-check-write -fchkp-instrument-calls
# -fchkp-narrow-bounds -fchkp-optimize -fchkp-store-bounds
# -fchkp-use-static-bounds -fchkp-use-static-const-bounds
# -fchkp-use-wrappers -fcommon -fdelete-null-pointer-checks
# -fdwarf2-cfi-asm -fearly-inlining -feliminate-unused-debug-types
# -fexceptions -ffp-int-builtin-inexact -ffunction-cse -fgcse-lm
# -fgnu-runtime -fgnu-unique -fident -finline-atomics -fira-hoist-pressure
# -fira-share-save-slots -fira-share-spill-slots -fivopts
# -fkeep-static-consts -fleading-underscore -flifetime-dse
# -flto-odr-type-merging -fmath-errno -fmerge-debug-strings -fpeephole
# -fplt -fprefetch-loop-arrays -freg-struct-return
# -fsched-critical-path-heuristic -fsched-dep-count-heuristic
# -fsched-group-heuristic -fsched-interblock -fsched-last-insn-heuristic
# -fsched-rank-heuristic -fsched-spec -fsched-spec-insn-heuristic
# -fsched-stalled-insns-dep -fschedule-fusion -fsemantic-interposition
# -fshow-column -fshrink-wrap-separate -fsigned-zeros
# -fsplit-ivs-in-unroller -fssa-backprop -fstdarg-opt
# -fstrict-volatile-bitfields -fsync-libcalls -ftrapping-math -ftree-cselim
# -ftree-forwprop -ftree-loop-if-convert -ftree-loop-im -ftree-loop-ivcanon
# -ftree-loop-optimize -ftree-parallelize-loops= -ftree-phiprop
# -ftree-reassoc -ftree-scev-cprop -funit-at-a-time -funwind-tables
# -fverbose-asm -fzero-initialized-in-bss -m128bit-long-double -m64 -m80387
# -malign-stringops -mavx256-split-unaligned-load
# -mavx256-split-unaligned-store -mfancy-math-387 -mfp-ret-in-387 -mfxsr
# -mglibc -mieee-fp -mlong-double-80 -mmmx -mno-sse4 -mpush-args -mred-zone
# -msse -msse2 -mstv -mtls-direct-seg-refs -mvzeroupper

	.text
	.section	.text._ZNKSt9type_infoeqERKS_,"axG",@progbits,_ZNKSt9type_infoeqERKS_,comdat
	.align 2
	.weak	_ZNKSt9type_infoeqERKS_
	.type	_ZNKSt9type_infoeqERKS_, @function
_ZNKSt9type_infoeqERKS_:
.LFB246:
	.cfi_startproc
	pushq	%rbp	#
	.cfi_def_cfa_offset 16
	.cfi_offset 6, -16
	movq	%rsp, %rbp	#,
	.cfi_def_cfa_register 6
	subq	$16, %rsp	#,
	movq	%rdi, -8(%rbp)	# this, this
	movq	%rsi, -16(%rbp)	# __arg, __arg
# /opt/rh/devtoolset-7/root/usr/include/c++/7/typeinfo:122:       return ((__name == __arg.__name)
	movq	-8(%rbp), %rax	# this, tmp96
	movq	8(%rax), %rdx	# this_10(D)->__name, _1
	movq	-16(%rbp), %rax	# __arg, tmp97
	movq	8(%rax), %rax	# __arg_11(D)->__name, _2
# /opt/rh/devtoolset-7/root/usr/include/c++/7/typeinfo:123: 	      || (__name[0] != '*' &&
	cmpq	%rax, %rdx	# _2, _1
	je	.L2	#,
# /opt/rh/devtoolset-7/root/usr/include/c++/7/typeinfo:123: 	      || (__name[0] != '*' &&
	movq	-8(%rbp), %rax	# this, tmp98
	movq	8(%rax), %rax	# this_10(D)->__name, _3
	movzbl	(%rax), %eax	# *_3, _4
	cmpb	$42, %al	#, _4
	je	.L3	#,
# /opt/rh/devtoolset-7/root/usr/include/c++/7/typeinfo:124: 		  __builtin_strcmp (__name, __arg.__name) == 0));
	movq	-16(%rbp), %rax	# __arg, tmp99
	movq	8(%rax), %rdx	# __arg_11(D)->__name, _5
	movq	-8(%rbp), %rax	# this, tmp100
	movq	8(%rax), %rax	# this_10(D)->__name, _6
	movq	%rdx, %rsi	# _5,
	movq	%rax, %rdi	# _6,
	call	strcmp	#
# /opt/rh/devtoolset-7/root/usr/include/c++/7/typeinfo:123: 	      || (__name[0] != '*' &&
	testl	%eax, %eax	# _7
	jne	.L3	#,
.L2:
# /opt/rh/devtoolset-7/root/usr/include/c++/7/typeinfo:123: 	      || (__name[0] != '*' &&
	movl	$1, %eax	#, iftmp.6_8
	jmp	.L4	#
.L3:
# /opt/rh/devtoolset-7/root/usr/include/c++/7/typeinfo:123: 	      || (__name[0] != '*' &&
	movl	$0, %eax	#, iftmp.6_8
.L4:
# /opt/rh/devtoolset-7/root/usr/include/c++/7/typeinfo:125:     }
	leave
	.cfi_def_cfa 7, 8
	ret
	.cfi_endproc
.LFE246:
	.size	_ZNKSt9type_infoeqERKS_, .-_ZNKSt9type_infoeqERKS_
	.section	.text._ZnwmPv,"axG",@progbits,_ZnwmPv,comdat
	.weak	_ZnwmPv
	.type	_ZnwmPv, @function
_ZnwmPv:
.LFB264:
	.cfi_startproc
	pushq	%rbp	#
	.cfi_def_cfa_offset 16
	.cfi_offset 6, -16
	movq	%rsp, %rbp	#,
	.cfi_def_cfa_register 6
	movq	%rdi, -8(%rbp)	# D.8100, D.8100
	movq	%rsi, -16(%rbp)	# __p, __p
# /opt/rh/devtoolset-7/root/usr/include/c++/7/new:169: { return __p; }
	movq	-16(%rbp), %rax	# __p, _2
	popq	%rbp	#
	.cfi_def_cfa 7, 8
	ret
	.cfi_endproc
.LFE264:
	.size	_ZnwmPv, .-_ZnwmPv
	.section	.text._ZdlPvS_,"axG",@progbits,_ZdlPvS_,comdat
	.weak	_ZdlPvS_
	.type	_ZdlPvS_, @function
_ZdlPvS_:
.LFB266:
	.cfi_startproc
	pushq	%rbp	#
	.cfi_def_cfa_offset 16
	.cfi_offset 6, -16
	movq	%rsp, %rbp	#,
	.cfi_def_cfa_register 6
	movq	%rdi, -8(%rbp)	# D.8108, D.8108
	movq	%rsi, -16(%rbp)	# D.8109, D.8109
# /opt/rh/devtoolset-7/root/usr/include/c++/7/new:174: inline void operator delete  (void*, void*) _GLIBCXX_USE_NOEXCEPT { }
	nop
	popq	%rbp	#
	.cfi_def_cfa 7, 8
	ret
	.cfi_endproc
.LFE266:
	.size	_ZdlPvS_, .-_ZdlPvS_
	.section	.text._ZNSt15__exception_ptr13exception_ptrC2EDn,"axG",@progbits,_ZNSt15__exception_ptr13exception_ptrC5EDn,comdat
	.align 2
	.weak	_ZNSt15__exception_ptr13exception_ptrC2EDn
	.type	_ZNSt15__exception_ptr13exception_ptrC2EDn, @function
_ZNSt15__exception_ptr13exception_ptrC2EDn:
.LFB269:
	.cfi_startproc
	pushq	%rbp	#
	.cfi_def_cfa_offset 16
	.cfi_offset 6, -16
	movq	%rsp, %rbp	#,
	.cfi_def_cfa_register 6
	movq	%rdi, -8(%rbp)	# this, this
	movq	%rsi, -16(%rbp)	# D.8186, D.8186
# /opt/rh/devtoolset-7/root/usr/include/c++/7/bits/exception_ptr.h:102:       : _M_exception_object(0)
	movq	-8(%rbp), %rax	# this, tmp87
	movq	$0, (%rax)	#, this_2(D)->_M_exception_object
# /opt/rh/devtoolset-7/root/usr/include/c++/7/bits/exception_ptr.h:103:       { }
	nop
	popq	%rbp	#
	.cfi_def_cfa 7, 8
	ret
	.cfi_endproc
.LFE269:
	.size	_ZNSt15__exception_ptr13exception_ptrC2EDn, .-_ZNSt15__exception_ptr13exception_ptrC2EDn
	.weak	_ZNSt15__exception_ptr13exception_ptrC1EDn
	.set	_ZNSt15__exception_ptr13exception_ptrC1EDn,_ZNSt15__exception_ptr13exception_ptrC2EDn
	.section	.text._ZNSt15__exception_ptr13exception_ptrC2EOS0_,"axG",@progbits,_ZNSt15__exception_ptr13exception_ptrC5EOS0_,comdat
	.align 2
	.weak	_ZNSt15__exception_ptr13exception_ptrC2EOS0_
	.type	_ZNSt15__exception_ptr13exception_ptrC2EOS0_, @function
_ZNSt15__exception_ptr13exception_ptrC2EOS0_:
.LFB272:
	.cfi_startproc
	pushq	%rbp	#
	.cfi_def_cfa_offset 16
	.cfi_offset 6, -16
	movq	%rsp, %rbp	#,
	.cfi_def_cfa_register 6
	movq	%rdi, -8(%rbp)	# this, this
	movq	%rsi, -16(%rbp)	# __o, __o
# /opt/rh/devtoolset-7/root/usr/include/c++/7/bits/exception_ptr.h:106:       : _M_exception_object(__o._M_exception_object)
	movq	-16(%rbp), %rax	# __o, tmp88
	movq	(%rax), %rdx	# __o_5(D)->_M_exception_object, _1
	movq	-8(%rbp), %rax	# this, tmp89
	movq	%rdx, (%rax)	# _1, this_3(D)->_M_exception_object
# /opt/rh/devtoolset-7/root/usr/include/c++/7/bits/exception_ptr.h:107:       { __o._M_exception_object = 0; }
	movq	-16(%rbp), %rax	# __o, tmp90
	movq	$0, (%rax)	#, __o_5(D)->_M_exception_object
	nop
	popq	%rbp	#
	.cfi_def_cfa 7, 8
	ret
	.cfi_endproc
.LFE272:
	.size	_ZNSt15__exception_ptr13exception_ptrC2EOS0_, .-_ZNSt15__exception_ptr13exception_ptrC2EOS0_
	.weak	_ZNSt15__exception_ptr13exception_ptrC1EOS0_
	.set	_ZNSt15__exception_ptr13exception_ptrC1EOS0_,_ZNSt15__exception_ptr13exception_ptrC2EOS0_
	.section	.text._ZNSt15__exception_ptr13exception_ptraSEOS0_,"axG",@progbits,_ZNSt15__exception_ptr13exception_ptraSEOS0_,comdat
	.align 2
	.weak	_ZNSt15__exception_ptr13exception_ptraSEOS0_
	.type	_ZNSt15__exception_ptr13exception_ptraSEOS0_, @function
_ZNSt15__exception_ptr13exception_ptraSEOS0_:
.LFB274:
	.cfi_startproc
	pushq	%rbp	#
	.cfi_def_cfa_offset 16
	.cfi_offset 6, -16
	movq	%rsp, %rbp	#,
	.cfi_def_cfa_register 6
	subq	$32, %rsp	#,
	movq	%rdi, -24(%rbp)	# this, this
	movq	%rsi, -32(%rbp)	# __o, __o
# /opt/rh/devtoolset-7/root/usr/include/c++/7/bits/exception_ptr.h:124:         exception_ptr(static_cast<exception_ptr&&>(__o)).swap(*this);
	movq	-32(%rbp), %rdx	# __o, tmp89
	leaq	-8(%rbp), %rax	#, tmp90
	movq	%rdx, %rsi	# tmp89,
	movq	%rax, %rdi	# tmp90,
	call	_ZNSt15__exception_ptr13exception_ptrC1EOS0_	#
	movq	-24(%rbp), %rdx	# this, tmp91
	leaq	-8(%rbp), %rax	#, tmp92
	movq	%rdx, %rsi	# tmp91,
	movq	%rax, %rdi	# tmp92,
	call	_ZNSt15__exception_ptr13exception_ptr4swapERS0_	#
	leaq	-8(%rbp), %rax	#, tmp93
	movq	%rax, %rdi	# tmp93,
	call	_ZNSt15__exception_ptr13exception_ptrD1Ev	#
# /opt/rh/devtoolset-7/root/usr/include/c++/7/bits/exception_ptr.h:125:         return *this;
	movq	-24(%rbp), %rax	# this, _8
# /opt/rh/devtoolset-7/root/usr/include/c++/7/bits/exception_ptr.h:126:       }
	leave
	.cfi_def_cfa 7, 8
	ret
	.cfi_endproc
.LFE274:
	.size	_ZNSt15__exception_ptr13exception_ptraSEOS0_, .-_ZNSt15__exception_ptr13exception_ptraSEOS0_
	.section	.rodata
	.type	_ZStL19piecewise_construct, @object
	.size	_ZStL19piecewise_construct, 1
_ZStL19piecewise_construct:
	.zero	1
	.section	.text._ZN9__gnu_cxx5__ops16__iter_less_iterEv,"axG",@progbits,_ZN9__gnu_cxx5__ops16__iter_less_iterEv,comdat
	.weak	_ZN9__gnu_cxx5__ops16__iter_less_iterEv
	.type	_ZN9__gnu_cxx5__ops16__iter_less_iterEv, @function
_ZN9__gnu_cxx5__ops16__iter_less_iterEv:
.LFB478:
	.cfi_startproc
	pushq	%rbp	#
	.cfi_def_cfa_offset 16
	.cfi_offset 6, -16
	movq	%rsp, %rbp	#,
	.cfi_def_cfa_register 6
# /opt/rh/devtoolset-7/root/usr/include/c++/7/bits/predefined_ops.h:49:   { return _Iter_less_iter(); }
	popq	%rbp	#
	.cfi_def_cfa 7, 8
	ret
	.cfi_endproc
.LFE478:
	.size	_ZN9__gnu_cxx5__ops16__iter_less_iterEv, .-_ZN9__gnu_cxx5__ops16__iter_less_iterEv
	.section	.text._ZSt4__lgl,"axG",@progbits,_ZSt4__lgl,comdat
	.weak	_ZSt4__lgl
	.type	_ZSt4__lgl, @function
_ZSt4__lgl:
.LFB577:
	.cfi_startproc
	pushq	%rbp	#
	.cfi_def_cfa_offset 16
	.cfi_offset 6, -16
	movq	%rsp, %rbp	#,
	.cfi_def_cfa_register 6
	movq	%rdi, -8(%rbp)	# __n, __n
# /opt/rh/devtoolset-7/root/usr/include/c++/7/bits/stl_algobase.h:1009:   { return sizeof(long) * __CHAR_BIT__ - 1 - __builtin_clzl(__n); }
	movq	-8(%rbp), %rax	# __n, __n.153_1
	bsrq	%rax, %rax	# __n.153_1, tmp93
	xorq	$63, %rax	#, tmp93
	cltq
	movl	$63, %edx	#, tmp94
	subq	%rax, %rdx	# _3, tmp94
	movq	%rdx, %rax	# tmp94, _4
	popq	%rbp	#
	.cfi_def_cfa 7, 8
	ret
	.cfi_endproc
.LFE577:
	.size	_ZSt4__lgl, .-_ZSt4__lgl
	.section	.rodata
	.align 8
	.type	_ZZL18__gthread_active_pvE20__gthread_active_ptr, @object
	.size	_ZZL18__gthread_active_pvE20__gthread_active_ptr, 8
_ZZL18__gthread_active_pvE20__gthread_active_ptr:
	.quad	_ZL28__gthrw___pthread_key_createPjPFvPvE
	.text
	.type	_ZL18__gthread_active_pv, @function
_ZL18__gthread_active_pv:
.LFB668:
	.cfi_startproc
	pushq	%rbp	#
	.cfi_def_cfa_offset 16
	.cfi_offset 6, -16
	movq	%rsp, %rbp	#,
	.cfi_def_cfa_register 6
# /opt/rh/devtoolset-7/root/usr/include/c++/7/x86_64-redhat-linux/bits/gthr-default.h:251:   return __gthread_active_ptr != 0;
	movl	$1, %eax	#, _1
	movl	$_ZL28__gthrw___pthread_key_createPjPFvPvE, %edx	#, tmp90
	testq	%rdx, %rdx	# tmp90
	jne	.L18	#,
	movl	$0, %eax	#, _1
.L18:
	movzbl	%al, %eax	# _1, _2
# /opt/rh/devtoolset-7/root/usr/include/c++/7/x86_64-redhat-linux/bits/gthr-default.h:252: }
	popq	%rbp	#
	.cfi_def_cfa 7, 8
	ret
	.cfi_endproc
.LFE668:
	.size	_ZL18__gthread_active_pv, .-_ZL18__gthread_active_pv
	.type	_ZL14__gthread_selfv, @function
_ZL14__gthread_selfv:
.LFB673:
	.cfi_startproc
	pushq	%rbp	#
	.cfi_def_cfa_offset 16
	.cfi_offset 6, -16
	movq	%rsp, %rbp	#,
	.cfi_def_cfa_register 6
# /opt/rh/devtoolset-7/root/usr/include/c++/7/x86_64-redhat-linux/bits/gthr-default.h:686:   return __gthrw_(pthread_self) ();
	call	_ZL20__gthrw_pthread_selfv	#
# /opt/rh/devtoolset-7/root/usr/include/c++/7/x86_64-redhat-linux/bits/gthr-default.h:687: }
	popq	%rbp	#
	.cfi_def_cfa 7, 8
	ret
	.cfi_endproc
.LFE673:
	.size	_ZL14__gthread_selfv, .-_ZL14__gthread_selfv
	.type	_ZL15__gthread_yieldv, @function
_ZL15__gthread_yieldv:
.LFB674:
	.cfi_startproc
	pushq	%rbp	#
	.cfi_def_cfa_offset 16
	.cfi_offset 6, -16
	movq	%rsp, %rbp	#,
	.cfi_def_cfa_register 6
# /opt/rh/devtoolset-7/root/usr/include/c++/7/x86_64-redhat-linux/bits/gthr-default.h:692:   return __gthrw_(sched_yield) ();
	call	_ZL19__gthrw_sched_yieldv	#
# /opt/rh/devtoolset-7/root/usr/include/c++/7/x86_64-redhat-linux/bits/gthr-default.h:693: }
	popq	%rbp	#
	.cfi_def_cfa 7, 8
	ret
	.cfi_endproc
.LFE674:
	.size	_ZL15__gthread_yieldv, .-_ZL15__gthread_yieldv
	.type	_ZL14__gthread_oncePiPFvvE, @function
_ZL14__gthread_oncePiPFvvE:
.LFB675:
	.cfi_startproc
	pushq	%rbp	#
	.cfi_def_cfa_offset 16
	.cfi_offset 6, -16
	movq	%rsp, %rbp	#,
	.cfi_def_cfa_register 6
	subq	$16, %rsp	#,
	movq	%rdi, -8(%rbp)	# __once, __once
	movq	%rsi, -16(%rbp)	# __func, __func
# /opt/rh/devtoolset-7/root/usr/include/c++/7/x86_64-redhat-linux/bits/gthr-default.h:698:   if (__gthread_active_p ())
	call	_ZL18__gthread_active_pv	#
	testl	%eax, %eax	# _1
	setne	%al	#, retval.248_6
	testb	%al, %al	# retval.248_6
	je	.L25	#,
# /opt/rh/devtoolset-7/root/usr/include/c++/7/x86_64-redhat-linux/bits/gthr-default.h:699:     return __gthrw_(pthread_once) (__once, __func);
	movq	-16(%rbp), %rdx	# __func, tmp91
	movq	-8(%rbp), %rax	# __once, tmp92
	movq	%rdx, %rsi	# tmp91,
	movq	%rax, %rdi	# tmp92,
	call	_ZL20__gthrw_pthread_oncePiPFvvE	#
	jmp	.L26	#
.L25:
# /opt/rh/devtoolset-7/root/usr/include/c++/7/x86_64-redhat-linux/bits/gthr-default.h:701:     return -1;
	movl	$-1, %eax	#, _2
.L26:
# /opt/rh/devtoolset-7/root/usr/include/c++/7/x86_64-redhat-linux/bits/gthr-default.h:702: }
	leave
	.cfi_def_cfa 7, 8
	ret
	.cfi_endproc
.LFE675:
	.size	_ZL14__gthread_oncePiPFvvE, .-_ZL14__gthread_oncePiPFvvE
	.type	_ZL20__gthread_mutex_lockP15pthread_mutex_t, @function
_ZL20__gthread_mutex_lockP15pthread_mutex_t:
.LFB682:
	.cfi_startproc
	pushq	%rbp	#
	.cfi_def_cfa_offset 16
	.cfi_offset 6, -16
	movq	%rsp, %rbp	#,
	.cfi_def_cfa_register 6
	subq	$16, %rsp	#,
	movq	%rdi, -8(%rbp)	# __mutex, __mutex
# /opt/rh/devtoolset-7/root/usr/include/c++/7/x86_64-redhat-linux/bits/gthr-default.h:747:   if (__gthread_active_p ())
	call	_ZL18__gthread_active_pv	#
	testl	%eax, %eax	# _1
	setne	%al	#, retval.222_6
	testb	%al, %al	# retval.222_6
	je	.L28	#,
# /opt/rh/devtoolset-7/root/usr/include/c++/7/x86_64-redhat-linux/bits/gthr-default.h:748:     return __gthrw_(pthread_mutex_lock) (__mutex);
	movq	-8(%rbp), %rax	# __mutex, tmp91
	movq	%rax, %rdi	# tmp91,
	call	_ZL26__gthrw_pthread_mutex_lockP15pthread_mutex_t	#
	jmp	.L29	#
.L28:
# /opt/rh/devtoolset-7/root/usr/include/c++/7/x86_64-redhat-linux/bits/gthr-default.h:750:     return 0;
	movl	$0, %eax	#, _2
.L29:
# /opt/rh/devtoolset-7/root/usr/include/c++/7/x86_64-redhat-linux/bits/gthr-default.h:751: }
	leave
	.cfi_def_cfa 7, 8
	ret
	.cfi_endproc
.LFE682:
	.size	_ZL20__gthread_mutex_lockP15pthread_mutex_t, .-_ZL20__gthread_mutex_lockP15pthread_mutex_t
	.type	_ZL22__gthread_mutex_unlockP15pthread_mutex_t, @function
_ZL22__gthread_mutex_unlockP15pthread_mutex_t:
.LFB685:
	.cfi_startproc
	pushq	%rbp	#
	.cfi_def_cfa_offset 16
	.cfi_offset 6, -16
	movq	%rsp, %rbp	#,
	.cfi_def_cfa_register 6
	subq	$16, %rsp	#,
	movq	%rdi, -8(%rbp)	# __mutex, __mutex
# /opt/rh/devtoolset-7/root/usr/include/c++/7/x86_64-redhat-linux/bits/gthr-default.h:777:   if (__gthread_active_p ())
	call	_ZL18__gthread_active_pv	#
	testl	%eax, %eax	# _1
	setne	%al	#, retval.218_6
	testb	%al, %al	# retval.218_6
	je	.L31	#,
# /opt/rh/devtoolset-7/root/usr/include/c++/7/x86_64-redhat-linux/bits/gthr-default.h:778:     return __gthrw_(pthread_mutex_unlock) (__mutex);
	movq	-8(%rbp), %rax	# __mutex, tmp91
	movq	%rax, %rdi	# tmp91,
	call	_ZL28__gthrw_pthread_mutex_unlockP15pthread_mutex_t	#
	jmp	.L32	#
.L31:
# /opt/rh/devtoolset-7/root/usr/include/c++/7/x86_64-redhat-linux/bits/gthr-default.h:780:     return 0;
	movl	$0, %eax	#, _2
.L32:
# /opt/rh/devtoolset-7/root/usr/include/c++/7/x86_64-redhat-linux/bits/gthr-default.h:781: }
	leave
	.cfi_def_cfa 7, 8
	ret
	.cfi_endproc
.LFE685:
	.size	_ZL22__gthread_mutex_unlockP15pthread_mutex_t, .-_ZL22__gthread_mutex_unlockP15pthread_mutex_t
	.type	_ZL24__gthread_cond_timedwaitP14pthread_cond_tP15pthread_mutex_tPK8timespec, @function
_ZL24__gthread_cond_timedwaitP14pthread_cond_tP15pthread_mutex_tPK8timespec:
.LFB694:
	.cfi_startproc
	pushq	%rbp	#
	.cfi_def_cfa_offset 16
	.cfi_offset 6, -16
	movq	%rsp, %rbp	#,
	.cfi_def_cfa_register 6
	subq	$32, %rsp	#,
	movq	%rdi, -8(%rbp)	# __cond, __cond
	movq	%rsi, -16(%rbp)	# __mutex, __mutex
	movq	%rdx, -24(%rbp)	# __abs_timeout, __abs_timeout
# /opt/rh/devtoolset-7/root/usr/include/c++/7/x86_64-redhat-linux/bits/gthr-default.h:871:   return __gthrw_(pthread_cond_timedwait) (__cond, __mutex, __abs_timeout);
	movq	-24(%rbp), %rdx	# __abs_timeout, tmp89
	movq	-16(%rbp), %rcx	# __mutex, tmp90
	movq	-8(%rbp), %rax	# __cond, tmp91
	movq	%rcx, %rsi	# tmp90,
	movq	%rax, %rdi	# tmp91,
	call	_ZL30__gthrw_pthread_cond_timedwaitP14pthread_cond_tP15pthread_mutex_tPK8timespec	#
# /opt/rh/devtoolset-7/root/usr/include/c++/7/x86_64-redhat-linux/bits/gthr-default.h:872: }
	leave
	.cfi_def_cfa 7, 8
	ret
	.cfi_endproc
.LFE694:
	.size	_ZL24__gthread_cond_timedwaitP14pthread_cond_tP15pthread_mutex_tPK8timespec, .-_ZL24__gthread_cond_timedwaitP14pthread_cond_tP15pthread_mutex_tPK8timespec
	.type	_ZN9__gnu_cxxL18__exchange_and_addEPVii, @function
_ZN9__gnu_cxxL18__exchange_and_addEPVii:
.LFB697:
	.cfi_startproc
	pushq	%rbp	#
	.cfi_def_cfa_offset 16
	.cfi_offset 6, -16
	movq	%rsp, %rbp	#,
	.cfi_def_cfa_register 6
	movq	%rdi, -8(%rbp)	# __mem, __mem
	movl	%esi, -12(%rbp)	# __val, __val
# /opt/rh/devtoolset-7/root/usr/include/c++/7/ext/atomicity.h:49:   { return __atomic_fetch_add(__mem, __val, __ATOMIC_ACQ_REL); }
	movl	-12(%rbp), %edx	# __val, __val.14_1
	movq	-8(%rbp), %rax	# __mem, tmp91
	lock xaddl	%edx, (%rax)	#, _2,
	movl	%edx, %eax	# _2, _7
	popq	%rbp	#
	.cfi_def_cfa 7, 8
	ret
	.cfi_endproc
.LFE697:
	.size	_ZN9__gnu_cxxL18__exchange_and_addEPVii, .-_ZN9__gnu_cxxL18__exchange_and_addEPVii
	.type	_ZN9__gnu_cxxL12__atomic_addEPVii, @function
_ZN9__gnu_cxxL12__atomic_addEPVii:
.LFB698:
	.cfi_startproc
	pushq	%rbp	#
	.cfi_def_cfa_offset 16
	.cfi_offset 6, -16
	movq	%rsp, %rbp	#,
	.cfi_def_cfa_register 6
	movq	%rdi, -8(%rbp)	# __mem, __mem
	movl	%esi, -12(%rbp)	# __val, __val
# /opt/rh/devtoolset-7/root/usr/include/c++/7/ext/atomicity.h:53:   { __atomic_fetch_add(__mem, __val, __ATOMIC_ACQ_REL); }
	movl	-12(%rbp), %edx	# __val, __val.10_1
	movq	-8(%rbp), %rax	# __mem, tmp88
	lock addl	%edx, (%rax)	#, __val.10_1,
	nop
	popq	%rbp	#
	.cfi_def_cfa 7, 8
	ret
	.cfi_endproc
.LFE698:
	.size	_ZN9__gnu_cxxL12__atomic_addEPVii, .-_ZN9__gnu_cxxL12__atomic_addEPVii
	.type	_ZN9__gnu_cxxL25__exchange_and_add_singleEPii, @function
_ZN9__gnu_cxxL25__exchange_and_add_singleEPii:
.LFB699:
	.cfi_startproc
	pushq	%rbp	#
	.cfi_def_cfa_offset 16
	.cfi_offset 6, -16
	movq	%rsp, %rbp	#,
	.cfi_def_cfa_register 6
	movq	%rdi, -24(%rbp)	# __mem, __mem
	movl	%esi, -28(%rbp)	# __val, __val
# /opt/rh/devtoolset-7/root/usr/include/c++/7/ext/atomicity.h:67:     _Atomic_word __result = *__mem;
	movq	-24(%rbp), %rax	# __mem, tmp91
	movl	(%rax), %eax	# *__mem_4(D), tmp92
	movl	%eax, -4(%rbp)	# tmp92, __result
# /opt/rh/devtoolset-7/root/usr/include/c++/7/ext/atomicity.h:68:     *__mem += __val;
	movq	-24(%rbp), %rax	# __mem, tmp93
	movl	(%rax), %edx	# *__mem_4(D), _1
	movl	-28(%rbp), %eax	# __val, tmp94
	addl	%eax, %edx	# tmp94, _2
	movq	-24(%rbp), %rax	# __mem, tmp95
	movl	%edx, (%rax)	# _2, *__mem_4(D)
# /opt/rh/devtoolset-7/root/usr/include/c++/7/ext/atomicity.h:69:     return __result;
	movl	-4(%rbp), %eax	# __result, _8
# /opt/rh/devtoolset-7/root/usr/include/c++/7/ext/atomicity.h:70:   }
	popq	%rbp	#
	.cfi_def_cfa 7, 8
	ret
	.cfi_endproc
.LFE699:
	.size	_ZN9__gnu_cxxL25__exchange_and_add_singleEPii, .-_ZN9__gnu_cxxL25__exchange_and_add_singleEPii
	.type	_ZN9__gnu_cxxL19__atomic_add_singleEPii, @function
_ZN9__gnu_cxxL19__atomic_add_singleEPii:
.LFB700:
	.cfi_startproc
	pushq	%rbp	#
	.cfi_def_cfa_offset 16
	.cfi_offset 6, -16
	movq	%rsp, %rbp	#,
	.cfi_def_cfa_register 6
	movq	%rdi, -8(%rbp)	# __mem, __mem
	movl	%esi, -12(%rbp)	# __val, __val
# /opt/rh/devtoolset-7/root/usr/include/c++/7/ext/atomicity.h:74:   { *__mem += __val; }
	movq	-8(%rbp), %rax	# __mem, tmp89
	movl	(%rax), %edx	# *__mem_4(D), _1
	movl	-12(%rbp), %eax	# __val, tmp90
	addl	%eax, %edx	# tmp90, _2
	movq	-8(%rbp), %rax	# __mem, tmp91
	movl	%edx, (%rax)	# _2, *__mem_4(D)
	nop
	popq	%rbp	#
	.cfi_def_cfa 7, 8
	ret
	.cfi_endproc
.LFE700:
	.size	_ZN9__gnu_cxxL19__atomic_add_singleEPii, .-_ZN9__gnu_cxxL19__atomic_add_singleEPii
	.type	_ZN9__gnu_cxxL27__exchange_and_add_dispatchEPii, @function
_ZN9__gnu_cxxL27__exchange_and_add_dispatchEPii:
.LFB701:
	.cfi_startproc
	pushq	%rbp	#
	.cfi_def_cfa_offset 16
	.cfi_offset 6, -16
	movq	%rsp, %rbp	#,
	.cfi_def_cfa_register 6
	subq	$16, %rsp	#,
	movq	%rdi, -8(%rbp)	# __mem, __mem
	movl	%esi, -12(%rbp)	# __val, __val
# /opt/rh/devtoolset-7/root/usr/include/c++/7/ext/atomicity.h:81:     if (__gthread_active_p())
	call	_ZL18__gthread_active_pv	#
	testl	%eax, %eax	# _1
	setne	%al	#, retval.13_6
	testb	%al, %al	# retval.13_6
	je	.L42	#,
# /opt/rh/devtoolset-7/root/usr/include/c++/7/ext/atomicity.h:82:       return __exchange_and_add(__mem, __val);
	movl	-12(%rbp), %edx	# __val, tmp91
	movq	-8(%rbp), %rax	# __mem, tmp92
	movl	%edx, %esi	# tmp91,
	movq	%rax, %rdi	# tmp92,
	call	_ZN9__gnu_cxxL18__exchange_and_addEPVii	#
	jmp	.L43	#
.L42:
# /opt/rh/devtoolset-7/root/usr/include/c++/7/ext/atomicity.h:84:       return __exchange_and_add_single(__mem, __val);
	movl	-12(%rbp), %edx	# __val, tmp93
	movq	-8(%rbp), %rax	# __mem, tmp94
	movl	%edx, %esi	# tmp93,
	movq	%rax, %rdi	# tmp94,
	call	_ZN9__gnu_cxxL25__exchange_and_add_singleEPii	#
.L43:
# /opt/rh/devtoolset-7/root/usr/include/c++/7/ext/atomicity.h:88:   }
	leave
	.cfi_def_cfa 7, 8
	ret
	.cfi_endproc
.LFE701:
	.size	_ZN9__gnu_cxxL27__exchange_and_add_dispatchEPii, .-_ZN9__gnu_cxxL27__exchange_and_add_dispatchEPii
	.type	_ZN9__gnu_cxxL21__atomic_add_dispatchEPii, @function
_ZN9__gnu_cxxL21__atomic_add_dispatchEPii:
.LFB702:
	.cfi_startproc
	pushq	%rbp	#
	.cfi_def_cfa_offset 16
	.cfi_offset 6, -16
	movq	%rsp, %rbp	#,
	.cfi_def_cfa_register 6
	subq	$16, %rsp	#,
	movq	%rdi, -8(%rbp)	# __mem, __mem
	movl	%esi, -12(%rbp)	# __val, __val
# /opt/rh/devtoolset-7/root/usr/include/c++/7/ext/atomicity.h:95:     if (__gthread_active_p())
	call	_ZL18__gthread_active_pv	#
	testl	%eax, %eax	# _1
	setne	%al	#, retval.9_5
	testb	%al, %al	# retval.9_5
	je	.L45	#,
# /opt/rh/devtoolset-7/root/usr/include/c++/7/ext/atomicity.h:96:       __atomic_add(__mem, __val);
	movl	-12(%rbp), %edx	# __val, tmp89
	movq	-8(%rbp), %rax	# __mem, tmp90
	movl	%edx, %esi	# tmp89,
	movq	%rax, %rdi	# tmp90,
	call	_ZN9__gnu_cxxL12__atomic_addEPVii	#
# /opt/rh/devtoolset-7/root/usr/include/c++/7/ext/atomicity.h:102:   }
	jmp	.L47	#
.L45:
# /opt/rh/devtoolset-7/root/usr/include/c++/7/ext/atomicity.h:98:       __atomic_add_single(__mem, __val);
	movl	-12(%rbp), %edx	# __val, tmp91
	movq	-8(%rbp), %rax	# __mem, tmp92
	movl	%edx, %esi	# tmp91,
	movq	%rax, %rdi	# tmp92,
	call	_ZN9__gnu_cxxL19__atomic_add_singleEPii	#
.L47:
# /opt/rh/devtoolset-7/root/usr/include/c++/7/ext/atomicity.h:102:   }
	nop
	leave
	.cfi_def_cfa 7, 8
	ret
	.cfi_endproc
.LFE702:
	.size	_ZN9__gnu_cxxL21__atomic_add_dispatchEPii, .-_ZN9__gnu_cxxL21__atomic_add_dispatchEPii
	.section	.text._ZNSt10_Hash_impl4hashEPKvmm,"axG",@progbits,_ZNSt10_Hash_impl4hashEPKvmm,comdat
	.weak	_ZNSt10_Hash_impl4hashEPKvmm
	.type	_ZNSt10_Hash_impl4hashEPKvmm, @function
_ZNSt10_Hash_impl4hashEPKvmm:
.LFB1085:
	.cfi_startproc
	pushq	%rbp	#
	.cfi_def_cfa_offset 16
	.cfi_offset 6, -16
	movq	%rsp, %rbp	#,
	.cfi_def_cfa_register 6
	subq	$32, %rsp	#,
	movq	%rdi, -8(%rbp)	# __ptr, __ptr
	movq	%rsi, -16(%rbp)	# __clength, __clength
	movq	%rdx, -24(%rbp)	# __seed, __seed
# /opt/rh/devtoolset-7/root/usr/include/c++/7/bits/functional_hash.h:192:     { return _Hash_bytes(__ptr, __clength, __seed); }
	movq	-24(%rbp), %rdx	# __seed, tmp89
	movq	-16(%rbp), %rcx	# __clength, tmp90
	movq	-8(%rbp), %rax	# __ptr, tmp91
	movq	%rcx, %rsi	# tmp90,
	movq	%rax, %rdi	# tmp91,
	call	_ZSt11_Hash_bytesPKvmm	#
	leave
	.cfi_def_cfa 7, 8
	ret
	.cfi_endproc
.LFE1085:
	.size	_ZNSt10_Hash_impl4hashEPKvmm, .-_ZNSt10_Hash_impl4hashEPKvmm
	.section	.text._ZNSt10error_codeC2EiRKNSt3_V214error_categoryE,"axG",@progbits,_ZNSt10error_codeC5EiRKNSt3_V214error_categoryE,comdat
	.align 2
	.weak	_ZNSt10error_codeC2EiRKNSt3_V214error_categoryE
	.type	_ZNSt10error_codeC2EiRKNSt3_V214error_categoryE, @function
_ZNSt10error_codeC2EiRKNSt3_V214error_categoryE:
.LFB1196:
	.cfi_startproc
	pushq	%rbp	#
	.cfi_def_cfa_offset 16
	.cfi_offset 6, -16
	movq	%rsp, %rbp	#,
	.cfi_def_cfa_register 6
	movq	%rdi, -8(%rbp)	# this, this
	movl	%esi, -12(%rbp)	# __v, __v
	movq	%rdx, -24(%rbp)	# __cat, __cat
# /opt/rh/devtoolset-7/root/usr/include/c++/7/system_error:152:     : _M_value(__v), _M_cat(&__cat) { }
	movq	-8(%rbp), %rax	# this, tmp87
	movl	-12(%rbp), %edx	# __v, tmp88
	movl	%edx, (%rax)	# tmp88, this_2(D)->_M_value
	movq	-8(%rbp), %rax	# this, tmp89
	movq	-24(%rbp), %rdx	# __cat, tmp90
	movq	%rdx, 8(%rax)	# tmp90, this_2(D)->_M_cat
	nop
	popq	%rbp	#
	.cfi_def_cfa 7, 8
	ret
	.cfi_endproc
.LFE1196:
	.size	_ZNSt10error_codeC2EiRKNSt3_V214error_categoryE, .-_ZNSt10error_codeC2EiRKNSt3_V214error_categoryE
	.weak	_ZNSt10error_codeC1EiRKNSt3_V214error_categoryE
	.set	_ZNSt10error_codeC1EiRKNSt3_V214error_categoryE,_ZNSt10error_codeC2EiRKNSt3_V214error_categoryE
	.section	.text._ZNKSt10error_code5valueEv,"axG",@progbits,_ZNKSt10error_code5valueEv,comdat
	.align 2
	.weak	_ZNKSt10error_code5valueEv
	.type	_ZNKSt10error_code5valueEv, @function
_ZNKSt10error_code5valueEv:
.LFB1202:
	.cfi_startproc
	pushq	%rbp	#
	.cfi_def_cfa_offset 16
	.cfi_offset 6, -16
	movq	%rsp, %rbp	#,
	.cfi_def_cfa_register 6
	movq	%rdi, -8(%rbp)	# this, this
# /opt/rh/devtoolset-7/root/usr/include/c++/7/system_error:178:     value() const noexcept { return _M_value; }
	movq	-8(%rbp), %rax	# this, tmp89
	movl	(%rax), %eax	# this_2(D)->_M_value, _3
	popq	%rbp	#
	.cfi_def_cfa 7, 8
	ret
	.cfi_endproc
.LFE1202:
	.size	_ZNKSt10error_code5valueEv, .-_ZNKSt10error_code5valueEv
	.section	.text._ZNKSt10error_code8categoryEv,"axG",@progbits,_ZNKSt10error_code8categoryEv,comdat
	.align 2
	.weak	_ZNKSt10error_code8categoryEv
	.type	_ZNKSt10error_code8categoryEv, @function
_ZNKSt10error_code8categoryEv:
.LFB1203:
	.cfi_startproc
	pushq	%rbp	#
	.cfi_def_cfa_offset 16
	.cfi_offset 6, -16
	movq	%rsp, %rbp	#,
	.cfi_def_cfa_register 6
	movq	%rdi, -8(%rbp)	# this, this
# /opt/rh/devtoolset-7/root/usr/include/c++/7/system_error:181:     category() const noexcept { return *_M_cat; }
	movq	-8(%rbp), %rax	# this, tmp89
	movq	8(%rax), %rax	# this_2(D)->_M_cat, _3
	popq	%rbp	#
	.cfi_def_cfa 7, 8
	ret
	.cfi_endproc
.LFE1203:
	.size	_ZNKSt10error_code8categoryEv, .-_ZNKSt10error_code8categoryEv
	.section	.text._ZNKSt10error_code7messageEv,"axG",@progbits,_ZNKSt10error_code7messageEv,comdat
	.align 2
	.weak	_ZNKSt10error_code7messageEv
	.type	_ZNKSt10error_code7messageEv, @function
_ZNKSt10error_code7messageEv:
.LFB1204:
	.cfi_startproc
	pushq	%rbp	#
	.cfi_def_cfa_offset 16
	.cfi_offset 6, -16
	movq	%rsp, %rbp	#,
	.cfi_def_cfa_register 6
	pushq	%r12	#
	pushq	%rbx	#
	subq	$16, %rsp	#,
	.cfi_offset 12, -24
	.cfi_offset 3, -32
	movq	%rdi, -24(%rbp)	# .result_ptr, .result_ptr
	movq	%rsi, -32(%rbp)	# this, this
# /opt/rh/devtoolset-7/root/usr/include/c++/7/system_error:189:     { return category().message(value()); }
	movq	-32(%rbp), %rax	# this, tmp92
	movq	%rax, %rdi	# tmp92,
	call	_ZNKSt10error_code8categoryEv	#
	movq	%rax, %rbx	#, _8
	movq	(%rbx), %rax	# _8->_vptr.error_category, _1
	addq	$24, %rax	#, _2
	movq	(%rax), %r12	# *_2, _3
	movq	-32(%rbp), %rax	# this, tmp93
	movq	%rax, %rdi	# tmp93,
	call	_ZNKSt10error_code5valueEv	#
	movl	%eax, %edx	#, _4
	movq	-24(%rbp), %rax	# <retval>, tmp94
	movq	%rbx, %rsi	# _8,
	movq	%rax, %rdi	# tmp94,
	call	*%r12	# _3
	movq	-24(%rbp), %rax	# <retval>,
	addq	$16, %rsp	#,
	popq	%rbx	#
	popq	%r12	#
	popq	%rbp	#
	.cfi_def_cfa 7, 8
	ret
	.cfi_endproc
.LFE1204:
	.size	_ZNKSt10error_code7messageEv, .-_ZNKSt10error_code7messageEv
	.section	.text._ZNKSt12system_error4codeEv,"axG",@progbits,_ZNKSt12system_error4codeEv,comdat
	.align 2
	.weak	_ZNKSt12system_error4codeEv
	.type	_ZNKSt12system_error4codeEv, @function
_ZNKSt12system_error4codeEv:
.LFB1251:
	.cfi_startproc
	pushq	%rbp	#
	.cfi_def_cfa_offset 16
	.cfi_offset 6, -16
	movq	%rsp, %rbp	#,
	.cfi_def_cfa_register 6
	movq	%rdi, -8(%rbp)	# this, this
# /opt/rh/devtoolset-7/root/usr/include/c++/7/system_error:370:     code() const noexcept { return _M_code; }
	movq	-8(%rbp), %rax	# this, tmp89
	addq	$16, %rax	#, _2
	popq	%rbp	#
	.cfi_def_cfa 7, 8
	ret
	.cfi_endproc
.LFE1251:
	.size	_ZNKSt12system_error4codeEv, .-_ZNKSt12system_error4codeEv
	.section	.text._ZSt16__deque_buf_sizem,"axG",@progbits,_ZSt16__deque_buf_sizem,comdat
	.weak	_ZSt16__deque_buf_sizem
	.type	_ZSt16__deque_buf_sizem, @function
_ZSt16__deque_buf_sizem:
.LFB2578:
	.cfi_startproc
	pushq	%rbp	#
	.cfi_def_cfa_offset 16
	.cfi_offset 6, -16
	movq	%rsp, %rbp	#,
	.cfi_def_cfa_register 6
	movq	%rdi, -8(%rbp)	# __size, __size
# /opt/rh/devtoolset-7/root/usr/include/c++/7/bits/stl_deque.h:93: 	    ? size_t(_GLIBCXX_DEQUE_BUF_SIZE / __size) : size_t(1)); }
	cmpq	$511, -8(%rbp)	#, __size
	ja	.L60	#,
# /opt/rh/devtoolset-7/root/usr/include/c++/7/bits/stl_deque.h:93: 	    ? size_t(_GLIBCXX_DEQUE_BUF_SIZE / __size) : size_t(1)); }
	movl	$512, %eax	#, tmp91
	movl	$0, %edx	#, tmp90
	divq	-8(%rbp)	# __size
	jmp	.L62	#
.L60:
# /opt/rh/devtoolset-7/root/usr/include/c++/7/bits/stl_deque.h:93: 	    ? size_t(_GLIBCXX_DEQUE_BUF_SIZE / __size) : size_t(1)); }
	movl	$1, %eax	#, iftmp.125_1
.L62:
# /opt/rh/devtoolset-7/root/usr/include/c++/7/bits/stl_deque.h:93: 	    ? size_t(_GLIBCXX_DEQUE_BUF_SIZE / __size) : size_t(1)); }
	popq	%rbp	#
	.cfi_def_cfa 7, 8
	ret
	.cfi_endproc
.LFE2578:
	.size	_ZSt16__deque_buf_sizem, .-_ZSt16__deque_buf_sizem
	.section	.rodata
	.type	_ZStL13allocator_arg, @object
	.size	_ZStL13allocator_arg, 1
_ZStL13allocator_arg:
	.zero	1
	.type	_ZStL6ignore, @object
	.size	_ZStL6ignore, 1
_ZStL6ignore:
	.zero	1
	.section	.text._ZNSt9_Any_data9_M_accessEv,"axG",@progbits,_ZNSt9_Any_data9_M_accessEv,comdat
	.align 2
	.weak	_ZNSt9_Any_data9_M_accessEv
	.type	_ZNSt9_Any_data9_M_accessEv, @function
_ZNSt9_Any_data9_M_accessEv:
.LFB3108:
	.cfi_startproc
	pushq	%rbp	#
	.cfi_def_cfa_offset 16
	.cfi_offset 6, -16
	movq	%rsp, %rbp	#,
	.cfi_def_cfa_register 6
	movq	%rdi, -8(%rbp)	# this, this
# /opt/rh/devtoolset-7/root/usr/include/c++/7/bits/std_function.h:106:     void*       _M_access()       { return &_M_pod_data[0]; }
	movq	-8(%rbp), %rax	# this, _2
	popq	%rbp	#
	.cfi_def_cfa 7, 8
	ret
	.cfi_endproc
.LFE3108:
	.size	_ZNSt9_Any_data9_M_accessEv, .-_ZNSt9_Any_data9_M_accessEv
	.section	.text._ZNKSt9_Any_data9_M_accessEv,"axG",@progbits,_ZNKSt9_Any_data9_M_accessEv,comdat
	.align 2
	.weak	_ZNKSt9_Any_data9_M_accessEv
	.type	_ZNKSt9_Any_data9_M_accessEv, @function
_ZNKSt9_Any_data9_M_accessEv:
.LFB3109:
	.cfi_startproc
	pushq	%rbp	#
	.cfi_def_cfa_offset 16
	.cfi_offset 6, -16
	movq	%rsp, %rbp	#,
	.cfi_def_cfa_register 6
	movq	%rdi, -8(%rbp)	# this, this
# /opt/rh/devtoolset-7/root/usr/include/c++/7/bits/std_function.h:107:     const void* _M_access() const { return &_M_pod_data[0]; }
	movq	-8(%rbp), %rax	# this, _2
	popq	%rbp	#
	.cfi_def_cfa 7, 8
	ret
	.cfi_endproc
.LFE3109:
	.size	_ZNKSt9_Any_data9_M_accessEv, .-_ZNKSt9_Any_data9_M_accessEv
	.section	.text._ZNSt14_Function_baseC2Ev,"axG",@progbits,_ZNSt14_Function_baseC5Ev,comdat
	.align 2
	.weak	_ZNSt14_Function_baseC2Ev
	.type	_ZNSt14_Function_baseC2Ev, @function
_ZNSt14_Function_baseC2Ev:
.LFB3127:
	.cfi_startproc
	pushq	%rbp	#
	.cfi_def_cfa_offset 16
	.cfi_offset 6, -16
	movq	%rsp, %rbp	#,
	.cfi_def_cfa_register 6
	movq	%rdi, -8(%rbp)	# this, this
# /opt/rh/devtoolset-7/root/usr/include/c++/7/bits/std_function.h:271:     _Function_base() : _M_manager(nullptr) { }
	movq	-8(%rbp), %rax	# this, tmp87
	movq	$0, 16(%rax)	#, this_2(D)->_M_manager
	nop
	popq	%rbp	#
	.cfi_def_cfa 7, 8
	ret
	.cfi_endproc
.LFE3127:
	.size	_ZNSt14_Function_baseC2Ev, .-_ZNSt14_Function_baseC2Ev
	.weak	_ZNSt14_Function_baseC1Ev
	.set	_ZNSt14_Function_baseC1Ev,_ZNSt14_Function_baseC2Ev
	.section	.text._ZNSt14_Function_baseD2Ev,"axG",@progbits,_ZNSt14_Function_baseD5Ev,comdat
	.align 2
	.weak	_ZNSt14_Function_baseD2Ev
	.type	_ZNSt14_Function_baseD2Ev, @function
_ZNSt14_Function_baseD2Ev:
.LFB3130:
	.cfi_startproc
	.cfi_personality 0x3,__gxx_personality_v0
	.cfi_lsda 0x3,.LLSDA3130
	pushq	%rbp	#
	.cfi_def_cfa_offset 16
	.cfi_offset 6, -16
	movq	%rsp, %rbp	#,
	.cfi_def_cfa_register 6
	subq	$16, %rsp	#,
	movq	%rdi, -8(%rbp)	# this, this
# /opt/rh/devtoolset-7/root/usr/include/c++/7/bits/std_function.h:275:       if (_M_manager)
	movq	-8(%rbp), %rax	# this, tmp91
	movq	16(%rax), %rax	# this_7(D)->_M_manager, _1
	testq	%rax, %rax	# _1
	je	.L70	#,
# /opt/rh/devtoolset-7/root/usr/include/c++/7/bits/std_function.h:276: 	_M_manager(_M_functor, _M_functor, __destroy_functor);
	movq	-8(%rbp), %rax	# this, tmp92
	movq	16(%rax), %rax	# this_7(D)->_M_manager, _2
	movq	-8(%rbp), %rsi	# this, _3
	movq	-8(%rbp), %rcx	# this, _4
	movl	$3, %edx	#,
	movq	%rcx, %rdi	# _4,
	call	*%rax	# _2
.L70:
# /opt/rh/devtoolset-7/root/usr/include/c++/7/bits/std_function.h:277:     }
	nop
	leave
	.cfi_def_cfa 7, 8
	ret
	.cfi_endproc
.LFE3130:
	.globl	__gxx_personality_v0
	.section	.gcc_except_table._ZNSt14_Function_baseD2Ev,"aG",@progbits,_ZNSt14_Function_baseD5Ev,comdat
.LLSDA3130:
	.byte	0xff
	.byte	0xff
	.byte	0x1
	.uleb128 .LLSDACSE3130-.LLSDACSB3130
.LLSDACSB3130:
.LLSDACSE3130:
	.section	.text._ZNSt14_Function_baseD2Ev,"axG",@progbits,_ZNSt14_Function_baseD5Ev,comdat
	.size	_ZNSt14_Function_baseD2Ev, .-_ZNSt14_Function_baseD2Ev
	.weak	_ZNSt14_Function_baseD1Ev
	.set	_ZNSt14_Function_baseD1Ev,_ZNSt14_Function_baseD2Ev
	.section	.text._ZNKSt14_Function_base8_M_emptyEv,"axG",@progbits,_ZNKSt14_Function_base8_M_emptyEv,comdat
	.align 2
	.weak	_ZNKSt14_Function_base8_M_emptyEv
	.type	_ZNKSt14_Function_base8_M_emptyEv, @function
_ZNKSt14_Function_base8_M_emptyEv:
.LFB3132:
	.cfi_startproc
	pushq	%rbp	#
	.cfi_def_cfa_offset 16
	.cfi_offset 6, -16
	movq	%rsp, %rbp	#,
	.cfi_def_cfa_register 6
	movq	%rdi, -8(%rbp)	# this, this
# /opt/rh/devtoolset-7/root/usr/include/c++/7/bits/std_function.h:279:     bool _M_empty() const { return !_M_manager; }
	movq	-8(%rbp), %rax	# this, tmp90
	movq	16(%rax), %rax	# this_3(D)->_M_manager, _1
	testq	%rax, %rax	# _1
	sete	%al	#, _4
	popq	%rbp	#
	.cfi_def_cfa 7, 8
	ret
	.cfi_endproc
.LFE3132:
	.size	_ZNKSt14_Function_base8_M_emptyEv, .-_ZNKSt14_Function_base8_M_emptyEv
	.local	_ZStL8__ioinit
	.comm	_ZStL8__ioinit,1,1
	.section	.text._ZNSt18_Rb_tree_node_base10_S_minimumEPS_,"axG",@progbits,_ZNSt18_Rb_tree_node_base10_S_minimumEPS_,comdat
	.weak	_ZNSt18_Rb_tree_node_base10_S_minimumEPS_
	.type	_ZNSt18_Rb_tree_node_base10_S_minimumEPS_, @function
_ZNSt18_Rb_tree_node_base10_S_minimumEPS_:
.LFB3610:
	.cfi_startproc
	pushq	%rbp	#
	.cfi_def_cfa_offset 16
	.cfi_offset 6, -16
	movq	%rsp, %rbp	#,
	.cfi_def_cfa_register 6
	movq	%rdi, -8(%rbp)	# __x, __x
.L75:
# /opt/rh/devtoolset-7/root/usr/include/c++/7/bits/stl_tree.h:114:       while (__x->_M_left != 0) __x = __x->_M_left;
	movq	-8(%rbp), %rax	# __x, tmp90
	movq	16(%rax), %rax	# __x_2->_M_left, _1
	testq	%rax, %rax	# _1
	je	.L74	#,
# /opt/rh/devtoolset-7/root/usr/include/c++/7/bits/stl_tree.h:114:       while (__x->_M_left != 0) __x = __x->_M_left;
	movq	-8(%rbp), %rax	# __x, tmp91
	movq	16(%rax), %rax	# __x_2->_M_left, tmp92
	movq	%rax, -8(%rbp)	# tmp92, __x
	jmp	.L75	#
.L74:
# /opt/rh/devtoolset-7/root/usr/include/c++/7/bits/stl_tree.h:115:       return __x;
	movq	-8(%rbp), %rax	# __x, _6
# /opt/rh/devtoolset-7/root/usr/include/c++/7/bits/stl_tree.h:116:     }
	popq	%rbp	#
	.cfi_def_cfa 7, 8
	ret
	.cfi_endproc
.LFE3610:
	.size	_ZNSt18_Rb_tree_node_base10_S_minimumEPS_, .-_ZNSt18_Rb_tree_node_base10_S_minimumEPS_
	.section	.text._ZNSt18_Rb_tree_node_base10_S_maximumEPS_,"axG",@progbits,_ZNSt18_Rb_tree_node_base10_S_maximumEPS_,comdat
	.weak	_ZNSt18_Rb_tree_node_base10_S_maximumEPS_
	.type	_ZNSt18_Rb_tree_node_base10_S_maximumEPS_, @function
_ZNSt18_Rb_tree_node_base10_S_maximumEPS_:
.LFB3612:
	.cfi_startproc
	pushq	%rbp	#
	.cfi_def_cfa_offset 16
	.cfi_offset 6, -16
	movq	%rsp, %rbp	#,
	.cfi_def_cfa_register 6
	movq	%rdi, -8(%rbp)	# __x, __x
.L79:
# /opt/rh/devtoolset-7/root/usr/include/c++/7/bits/stl_tree.h:128:       while (__x->_M_right != 0) __x = __x->_M_right;
	movq	-8(%rbp), %rax	# __x, tmp90
	movq	24(%rax), %rax	# __x_2->_M_right, _1
	testq	%rax, %rax	# _1
	je	.L78	#,
# /opt/rh/devtoolset-7/root/usr/include/c++/7/bits/stl_tree.h:128:       while (__x->_M_right != 0) __x = __x->_M_right;
	movq	-8(%rbp), %rax	# __x, tmp91
	movq	24(%rax), %rax	# __x_2->_M_right, tmp92
	movq	%rax, -8(%rbp)	# tmp92, __x
	jmp	.L79	#
.L78:
# /opt/rh/devtoolset-7/root/usr/include/c++/7/bits/stl_tree.h:129:       return __x;
	movq	-8(%rbp), %rax	# __x, _6
# /opt/rh/devtoolset-7/root/usr/include/c++/7/bits/stl_tree.h:130:     }
	popq	%rbp	#
	.cfi_def_cfa 7, 8
	ret
	.cfi_endproc
.LFE3612:
	.size	_ZNSt18_Rb_tree_node_base10_S_maximumEPS_, .-_ZNSt18_Rb_tree_node_base10_S_maximumEPS_
	.section	.text._ZNSt15_Rb_tree_headerC2Ev,"axG",@progbits,_ZNSt15_Rb_tree_headerC5Ev,comdat
	.align 2
	.weak	_ZNSt15_Rb_tree_headerC2Ev
	.type	_ZNSt15_Rb_tree_headerC2Ev, @function
_ZNSt15_Rb_tree_headerC2Ev:
.LFB3618:
	.cfi_startproc
	pushq	%rbp	#
	.cfi_def_cfa_offset 16
	.cfi_offset 6, -16
	movq	%rsp, %rbp	#,
	.cfi_def_cfa_register 6
	subq	$16, %rsp	#,
	movq	%rdi, -8(%rbp)	# this, this
# /opt/rh/devtoolset-7/root/usr/include/c++/7/bits/stl_tree.h:175:       _M_header._M_color = _S_red;
	movq	-8(%rbp), %rax	# this, tmp87
	movl	$0, (%rax)	#, this_2(D)->_M_header._M_color
# /opt/rh/devtoolset-7/root/usr/include/c++/7/bits/stl_tree.h:176:       _M_reset();
	movq	-8(%rbp), %rax	# this, tmp88
	movq	%rax, %rdi	# tmp88,
	call	_ZNSt15_Rb_tree_header8_M_resetEv	#
# /opt/rh/devtoolset-7/root/usr/include/c++/7/bits/stl_tree.h:177:     }
	nop
	leave
	.cfi_def_cfa 7, 8
	ret
	.cfi_endproc
.LFE3618:
	.size	_ZNSt15_Rb_tree_headerC2Ev, .-_ZNSt15_Rb_tree_headerC2Ev
	.weak	_ZNSt15_Rb_tree_headerC1Ev
	.set	_ZNSt15_Rb_tree_headerC1Ev,_ZNSt15_Rb_tree_headerC2Ev
	.section	.text._ZNSt15_Rb_tree_header8_M_resetEv,"axG",@progbits,_ZNSt15_Rb_tree_header8_M_resetEv,comdat
	.align 2
	.weak	_ZNSt15_Rb_tree_header8_M_resetEv
	.type	_ZNSt15_Rb_tree_header8_M_resetEv, @function
_ZNSt15_Rb_tree_header8_M_resetEv:
.LFB3624:
	.cfi_startproc
	pushq	%rbp	#
	.cfi_def_cfa_offset 16
	.cfi_offset 6, -16
	movq	%rsp, %rbp	#,
	.cfi_def_cfa_register 6
	movq	%rdi, -8(%rbp)	# this, this
# /opt/rh/devtoolset-7/root/usr/include/c++/7/bits/stl_tree.h:208:       _M_header._M_parent = 0;
	movq	-8(%rbp), %rax	# this, tmp89
	movq	$0, 8(%rax)	#, this_4(D)->_M_header._M_parent
# /opt/rh/devtoolset-7/root/usr/include/c++/7/bits/stl_tree.h:209:       _M_header._M_left = &_M_header;
	movq	-8(%rbp), %rdx	# this, _1
	movq	-8(%rbp), %rax	# this, tmp90
	movq	%rdx, 16(%rax)	# _1, this_4(D)->_M_header._M_left
# /opt/rh/devtoolset-7/root/usr/include/c++/7/bits/stl_tree.h:210:       _M_header._M_right = &_M_header;
	movq	-8(%rbp), %rdx	# this, _2
	movq	-8(%rbp), %rax	# this, tmp91
	movq	%rdx, 24(%rax)	# _2, this_4(D)->_M_header._M_right
# /opt/rh/devtoolset-7/root/usr/include/c++/7/bits/stl_tree.h:211:       _M_node_count = 0;
	movq	-8(%rbp), %rax	# this, tmp92
	movq	$0, 32(%rax)	#, this_4(D)->_M_node_count
# /opt/rh/devtoolset-7/root/usr/include/c++/7/bits/stl_tree.h:212:     }
	nop
	popq	%rbp	#
	.cfi_def_cfa 7, 8
	ret
	.cfi_endproc
.LFE3624:
	.size	_ZNSt15_Rb_tree_header8_M_resetEv, .-_ZNSt15_Rb_tree_header8_M_resetEv
	.section	.rodata
	.align 4
	.type	_ZN9__gnu_cxxL21__default_lock_policyE, @object
	.size	_ZN9__gnu_cxxL21__default_lock_policyE, 4
_ZN9__gnu_cxxL21__default_lock_policyE:
	.long	2
	.section	.text._ZNSt9exceptionC2ERKS_,"axG",@progbits,_ZNSt9exceptionC5ERKS_,comdat
	.align 2
	.weak	_ZNSt9exceptionC2ERKS_
	.type	_ZNSt9exceptionC2ERKS_, @function
_ZNSt9exceptionC2ERKS_:
.LFB3921:
	.cfi_startproc
	pushq	%rbp	#
	.cfi_def_cfa_offset 16
	.cfi_offset 6, -16
	movq	%rsp, %rbp	#,
	.cfi_def_cfa_register 6
	movq	%rdi, -8(%rbp)	# this, this
	movq	%rsi, -16(%rbp)	# D.7833, D.7833
# /opt/rh/devtoolset-7/root/usr/include/c++/7/bits/exception.h:60:   class exception
	movl	$_ZTVSt9exception+16, %edx	#, _1
	movq	-8(%rbp), %rax	# this, tmp88
	movq	%rdx, (%rax)	# _1, this_3(D)->_vptr.exception
	nop
	popq	%rbp	#
	.cfi_def_cfa 7, 8
	ret
	.cfi_endproc
.LFE3921:
	.size	_ZNSt9exceptionC2ERKS_, .-_ZNSt9exceptionC2ERKS_
	.weak	_ZNSt9exceptionC1ERKS_
	.set	_ZNSt9exceptionC1ERKS_,_ZNSt9exceptionC2ERKS_
	.section	.text._ZNSt16_Sp_counted_baseILN9__gnu_cxx12_Lock_policyE2EE23_M_add_ref_lock_nothrowEv,"axG",@progbits,_ZNSt16_Sp_counted_baseILN9__gnu_cxx12_Lock_policyE2EE23_M_add_ref_lock_nothrowEv,comdat
	.align 2
	.weak	_ZNSt16_Sp_counted_baseILN9__gnu_cxx12_Lock_policyE2EE23_M_add_ref_lock_nothrowEv
	.type	_ZNSt16_Sp_counted_baseILN9__gnu_cxx12_Lock_policyE2EE23_M_add_ref_lock_nothrowEv, @function
_ZNSt16_Sp_counted_baseILN9__gnu_cxx12_Lock_policyE2EE23_M_add_ref_lock_nothrowEv:
.LFB3990:
	.cfi_startproc
	pushq	%rbp	#
	.cfi_def_cfa_offset 16
	.cfi_offset 6, -16
	movq	%rsp, %rbp	#,
	.cfi_def_cfa_register 6
	subq	$32, %rsp	#,
	movq	%rdi, -24(%rbp)	# this, this
# /opt/rh/devtoolset-7/root/usr/include/c++/7/bits/shared_ptr_base.h:286:       _Atomic_word __count = _M_get_use_count();
	movq	-24(%rbp), %rax	# this, tmp98
	movq	%rax, %rdi	# tmp98,
	call	_ZNKSt16_Sp_counted_baseILN9__gnu_cxx12_Lock_policyE2EE16_M_get_use_countEv	#
	movl	%eax, -4(%rbp)	# _2, __count
.L89:
# /opt/rh/devtoolset-7/root/usr/include/c++/7/bits/shared_ptr_base.h:289: 	  if (__count == 0)
	movl	-4(%rbp), %eax	# __count, __count.20_3
	testl	%eax, %eax	# __count.20_3
	jne	.L85	#,
# /opt/rh/devtoolset-7/root/usr/include/c++/7/bits/shared_ptr_base.h:290: 	    return false;
	movl	$0, %eax	#, _9
	jmp	.L90	#
.L85:
# /opt/rh/devtoolset-7/root/usr/include/c++/7/bits/shared_ptr_base.h:294:       while (!__atomic_compare_exchange_n(&_M_use_count, &__count, __count + 1,
	movl	-4(%rbp), %eax	# __count, __count.22_4
	addl	$1, %eax	#, _5
	movl	%eax, %ecx	# _5, _6
	movq	-24(%rbp), %rax	# this, tmp99
	leaq	8(%rax), %rsi	#, _7
	leaq	-4(%rbp), %rdx	#, tmp100
	movl	(%rdx), %eax	#, tmp101
	lock cmpxchgl	%ecx, (%rsi)	#, _6,* _7
	movl	%eax, %ecx	# tmp101, tmp102
	sete	%al	#, _8
	testb	%al, %al	# _8
	jne	.L87	#,
	movl	%ecx, (%rdx)	# tmp102,
.L87:
	xorl	$1, %eax	#, retval.21_17
	testb	%al, %al	# retval.21_17
	je	.L88	#,
# /opt/rh/devtoolset-7/root/usr/include/c++/7/bits/shared_ptr_base.h:287:       do
	jmp	.L89	#
.L88:
# /opt/rh/devtoolset-7/root/usr/include/c++/7/bits/shared_ptr_base.h:297:       return true;
	movl	$1, %eax	#, _9
.L90:
# /opt/rh/devtoolset-7/root/usr/include/c++/7/bits/shared_ptr_base.h:298:     }
	leave
	.cfi_def_cfa 7, 8
	ret
	.cfi_endproc
.LFE3990:
	.size	_ZNSt16_Sp_counted_baseILN9__gnu_cxx12_Lock_policyE2EE23_M_add_ref_lock_nothrowEv, .-_ZNSt16_Sp_counted_baseILN9__gnu_cxx12_Lock_policyE2EE23_M_add_ref_lock_nothrowEv
	.section	.text._ZStanSt12memory_orderSt23__memory_order_modifier,"axG",@progbits,_ZStanSt12memory_orderSt23__memory_order_modifier,comdat
	.weak	_ZStanSt12memory_orderSt23__memory_order_modifier
	.type	_ZStanSt12memory_orderSt23__memory_order_modifier, @function
_ZStanSt12memory_orderSt23__memory_order_modifier:
.LFB4226:
	.cfi_startproc
	pushq	%rbp	#
	.cfi_def_cfa_offset 16
	.cfi_offset 6, -16
	movq	%rsp, %rbp	#,
	.cfi_def_cfa_register 6
	movl	%edi, -4(%rbp)	# __m, __m
	movl	%esi, -8(%rbp)	# __mod, __mod
# /opt/rh/devtoolset-7/root/usr/include/c++/7/bits/atomic_base.h:82:     return memory_order(__m & int(__mod));
	movl	-4(%rbp), %edx	# __m, __m.253_1
	movl	-8(%rbp), %eax	# __mod, __mod.254_2
	andl	%edx, %eax	# __m.253_1, _3
# /opt/rh/devtoolset-7/root/usr/include/c++/7/bits/atomic_base.h:83:   }
	popq	%rbp	#
	.cfi_def_cfa 7, 8
	ret
	.cfi_endproc
.LFE4226:
	.size	_ZStanSt12memory_orderSt23__memory_order_modifier, .-_ZStanSt12memory_orderSt23__memory_order_modifier
	.section	.text._ZNSt11atomic_flagC2Eb,"axG",@progbits,_ZNSt11atomic_flagC5Eb,comdat
	.align 2
	.weak	_ZNSt11atomic_flagC2Eb
	.type	_ZNSt11atomic_flagC2Eb, @function
_ZNSt11atomic_flagC2Eb:
.LFB4233:
	.cfi_startproc
	pushq	%rbp	#
	.cfi_def_cfa_offset 16
	.cfi_offset 6, -16
	movq	%rsp, %rbp	#,
	.cfi_def_cfa_register 6
	subq	$16, %rsp	#,
	movq	%rdi, -8(%rbp)	# this, this
	movl	%esi, %eax	# __i, tmp89
	movb	%al, -12(%rbp)	# tmp90, __i
# /opt/rh/devtoolset-7/root/usr/include/c++/7/bits/atomic_base.h:170:       : __atomic_flag_base{ _S_init(__i) }
	movzbl	-12(%rbp), %eax	# __i, _1
	movl	%eax, %edi	# _1,
	call	_ZNSt11atomic_flag7_S_initEb	#
	movl	%eax, %edx	#, _2
	movq	-8(%rbp), %rax	# this, tmp91
	movb	%dl, (%rax)	# _2, this_4(D)->D.74057._M_i
# /opt/rh/devtoolset-7/root/usr/include/c++/7/bits/atomic_base.h:171:     { }
	nop
	leave
	.cfi_def_cfa 7, 8
	ret
	.cfi_endproc
.LFE4233:
	.size	_ZNSt11atomic_flagC2Eb, .-_ZNSt11atomic_flagC2Eb
	.weak	_ZNSt11atomic_flagC1Eb
	.set	_ZNSt11atomic_flagC1Eb,_ZNSt11atomic_flagC2Eb
	.section	.text._ZNSt11atomic_flag7_S_initEb,"axG",@progbits,_ZNSt11atomic_flag7_S_initEb,comdat
	.weak	_ZNSt11atomic_flag7_S_initEb
	.type	_ZNSt11atomic_flag7_S_initEb, @function
_ZNSt11atomic_flag7_S_initEb:
.LFB4239:
	.cfi_startproc
	pushq	%rbp	#
	.cfi_def_cfa_offset 16
	.cfi_offset 6, -16
	movq	%rsp, %rbp	#,
	.cfi_def_cfa_register 6
	movl	%edi, %eax	# __i, tmp89
	movb	%al, -4(%rbp)	# tmp90, __i
# /opt/rh/devtoolset-7/root/usr/include/c++/7/bits/atomic_base.h:210:     { return __i ? __GCC_ATOMIC_TEST_AND_SET_TRUEVAL : 0; }
	movzbl	-4(%rbp), %eax	# __i, _2
	popq	%rbp	#
	.cfi_def_cfa 7, 8
	ret
	.cfi_endproc
.LFE4239:
	.size	_ZNSt11atomic_flag7_S_initEb, .-_ZNSt11atomic_flag7_S_initEb
	.section	.text._ZNSt6atomicIjEC2Ej,"axG",@progbits,_ZNSt6atomicIjEC5Ej,comdat
	.align 2
	.weak	_ZNSt6atomicIjEC2Ej
	.type	_ZNSt6atomicIjEC2Ej, @function
_ZNSt6atomicIjEC2Ej:
.LFB5640:
	.cfi_startproc
	pushq	%rbp	#
	.cfi_def_cfa_offset 16
	.cfi_offset 6, -16
	movq	%rsp, %rbp	#,
	.cfi_def_cfa_register 6
	subq	$16, %rsp	#,
	movq	%rdi, -8(%rbp)	# this, this
	movl	%esi, -12(%rbp)	# __i, __i
# /opt/rh/devtoolset-7/root/usr/include/c++/7/atomic:695:       constexpr atomic(__integral_type __i) noexcept : __base_type(__i) { }
	movq	-8(%rbp), %rax	# this, _1
	movl	-12(%rbp), %edx	# __i, tmp88
	movl	%edx, %esi	# tmp88,
	movq	%rax, %rdi	# _1,
	call	_ZNSt13__atomic_baseIjEC2Ej	#
	nop
	leave
	.cfi_def_cfa 7, 8
	ret
	.cfi_endproc
.LFE5640:
	.size	_ZNSt6atomicIjEC2Ej, .-_ZNSt6atomicIjEC2Ej
	.weak	_ZNSt6atomicIjEC1Ej
	.set	_ZNSt6atomicIjEC1Ej,_ZNSt6atomicIjEC2Ej
	.section	.text._ZNKSt6chrono8durationIlSt5ratioILl1ELl1000000000EEE5countEv,"axG",@progbits,_ZNKSt6chrono8durationIlSt5ratioILl1ELl1000000000EEE5countEv,comdat
	.align 2
	.weak	_ZNKSt6chrono8durationIlSt5ratioILl1ELl1000000000EEE5countEv
	.type	_ZNKSt6chrono8durationIlSt5ratioILl1ELl1000000000EEE5countEv, @function
_ZNKSt6chrono8durationIlSt5ratioILl1ELl1000000000EEE5countEv:
.LFB5783:
	.cfi_startproc
	pushq	%rbp	#
	.cfi_def_cfa_offset 16
	.cfi_offset 6, -16
	movq	%rsp, %rbp	#,
	.cfi_def_cfa_register 6
	movq	%rdi, -8(%rbp)	# this, this
# /opt/rh/devtoolset-7/root/usr/include/c++/7/chrono:341: 	{ return __r; }
	movq	-8(%rbp), %rax	# this, tmp89
	movq	(%rax), %rax	# this_2(D)->__r, _3
	popq	%rbp	#
	.cfi_def_cfa 7, 8
	ret
	.cfi_endproc
.LFE5783:
	.size	_ZNKSt6chrono8durationIlSt5ratioILl1ELl1000000000EEE5countEv, .-_ZNKSt6chrono8durationIlSt5ratioILl1ELl1000000000EEE5countEv
	.section	.text._ZNSt6chronoltIlSt5ratioILl1ELl1000000000EElS2_EEbRKNS_8durationIT_T0_EERKNS3_IT1_T2_EE,"axG",@progbits,_ZNSt6chronoltIlSt5ratioILl1ELl1000000000EElS2_EEbRKNS_8durationIT_T0_EERKNS3_IT1_T2_EE,comdat
	.weak	_ZNSt6chronoltIlSt5ratioILl1ELl1000000000EElS2_EEbRKNS_8durationIT_T0_EERKNS3_IT1_T2_EE
	.type	_ZNSt6chronoltIlSt5ratioILl1ELl1000000000EElS2_EEbRKNS_8durationIT_T0_EERKNS3_IT1_T2_EE, @function
_ZNSt6chronoltIlSt5ratioILl1ELl1000000000EElS2_EEbRKNS_8durationIT_T0_EERKNS3_IT1_T2_EE:
.LFB5782:
	.cfi_startproc
	pushq	%rbp	#
	.cfi_def_cfa_offset 16
	.cfi_offset 6, -16
	movq	%rsp, %rbp	#,
	.cfi_def_cfa_register 6
	pushq	%rbx	#
	subq	$40, %rsp	#,
	.cfi_offset 3, -24
	movq	%rdi, -40(%rbp)	# __lhs, __lhs
	movq	%rsi, -48(%rbp)	# __rhs, __rhs
# /opt/rh/devtoolset-7/root/usr/include/c++/7/chrono:559: 	return __ct(__lhs).count() < __ct(__rhs).count();
	movq	-40(%rbp), %rax	# __lhs, tmp91
	movq	(%rax), %rax	# *__lhs_4(D), tmp92
	movq	%rax, -32(%rbp)	# tmp92, D.95320
	leaq	-32(%rbp), %rax	#, tmp93
	movq	%rax, %rdi	# tmp93,
	call	_ZNKSt6chrono8durationIlSt5ratioILl1ELl1000000000EEE5countEv	#
	movq	%rax, %rbx	#, _1
	movq	-48(%rbp), %rax	# __rhs, tmp94
	movq	(%rax), %rax	# *__rhs_7(D), tmp95
	movq	%rax, -24(%rbp)	# tmp95, D.95321
	leaq	-24(%rbp), %rax	#, tmp96
	movq	%rax, %rdi	# tmp96,
	call	_ZNKSt6chrono8durationIlSt5ratioILl1ELl1000000000EEE5countEv	#
	cmpq	%rax, %rbx	# _2, _1
	setl	%al	#, _10
# /opt/rh/devtoolset-7/root/usr/include/c++/7/chrono:560:       }
	addq	$40, %rsp	#,
	popq	%rbx	#
	popq	%rbp	#
	.cfi_def_cfa 7, 8
	ret
	.cfi_endproc
.LFE5782:
	.size	_ZNSt6chronoltIlSt5ratioILl1ELl1000000000EElS2_EEbRKNS_8durationIT_T0_EERKNS3_IT1_T2_EE, .-_ZNSt6chronoltIlSt5ratioILl1ELl1000000000EElS2_EEbRKNS_8durationIT_T0_EERKNS3_IT1_T2_EE
	.section	.text._ZNSt6chrono8durationIlSt5ratioILl1ELl1000000000EEEC1IlvEERKT_,"axG",@progbits,_ZNSt6chrono8durationIlSt5ratioILl1ELl1000000000EEEC1IlvEERKT_,comdat
	.align 2
	.weak	_ZNSt6chrono8durationIlSt5ratioILl1ELl1000000000EEEC1IlvEERKT_
	.type	_ZNSt6chrono8durationIlSt5ratioILl1ELl1000000000EEEC1IlvEERKT_, @function
_ZNSt6chrono8durationIlSt5ratioILl1ELl1000000000EEEC1IlvEERKT_:
.LFB5787:
	.cfi_startproc
	pushq	%rbp	#
	.cfi_def_cfa_offset 16
	.cfi_offset 6, -16
	movq	%rsp, %rbp	#,
	.cfi_def_cfa_register 6
	movq	%rdi, -8(%rbp)	# this, this
	movq	%rsi, -16(%rbp)	# __rep, __rep
# /opt/rh/devtoolset-7/root/usr/include/c++/7/chrono:326: 	  : __r(static_cast<rep>(__rep)) { }
	movq	-16(%rbp), %rax	# __rep, tmp88
	movq	(%rax), %rdx	# *__rep_5(D), _1
	movq	-8(%rbp), %rax	# this, tmp89
	movq	%rdx, (%rax)	# _1, this_3(D)->__r
	nop
	popq	%rbp	#
	.cfi_def_cfa 7, 8
	ret
	.cfi_endproc
.LFE5787:
	.size	_ZNSt6chrono8durationIlSt5ratioILl1ELl1000000000EEEC1IlvEERKT_, .-_ZNSt6chrono8durationIlSt5ratioILl1ELl1000000000EEEC1IlvEERKT_
	.section	.text._ZNSt6chrono8durationIlSt5ratioILl1ELl1000000000EEE4zeroEv,"axG",@progbits,_ZNSt6chrono8durationIlSt5ratioILl1ELl1000000000EEE4zeroEv,comdat
	.weak	_ZNSt6chrono8durationIlSt5ratioILl1ELl1000000000EEE4zeroEv
	.type	_ZNSt6chrono8durationIlSt5ratioILl1ELl1000000000EEE4zeroEv, @function
_ZNSt6chrono8durationIlSt5ratioILl1ELl1000000000EEE4zeroEv:
.LFB5789:
	.cfi_startproc
	pushq	%rbp	#
	.cfi_def_cfa_offset 16
	.cfi_offset 6, -16
	movq	%rsp, %rbp	#,
	.cfi_def_cfa_register 6
	subq	$16, %rsp	#,
# /opt/rh/devtoolset-7/root/usr/include/c++/7/chrono:426: 	{ return duration(duration_values<rep>::zero()); }
	call	_ZNSt6chrono15duration_valuesIlE4zeroEv	#
	movq	%rax, -8(%rbp)	# _1, D.95397
# /opt/rh/devtoolset-7/root/usr/include/c++/7/chrono:821: 		    "a clock's minimum duration cannot be less than its epoch");
	leaq	-8(%rbp), %rdx	#, tmp90
	leaq	-16(%rbp), %rax	#, tmp91
	movq	%rdx, %rsi	# tmp90,
	movq	%rax, %rdi	# tmp91,
	call	_ZNSt6chrono8durationIlSt5ratioILl1ELl1000000000EEEC1IlvEERKT_	#
# /opt/rh/devtoolset-7/root/usr/include/c++/7/chrono:426: 	{ return duration(duration_values<rep>::zero()); }
	movq	-16(%rbp), %rax	# D.95398, D.258795
	leave
	.cfi_def_cfa 7, 8
	ret
	.cfi_endproc
.LFE5789:
	.size	_ZNSt6chrono8durationIlSt5ratioILl1ELl1000000000EEE4zeroEv, .-_ZNSt6chrono8durationIlSt5ratioILl1ELl1000000000EEE4zeroEv
	.section	.text._ZNSt6chrono15duration_valuesIlE4zeroEv,"axG",@progbits,_ZNSt6chrono15duration_valuesIlE4zeroEv,comdat
	.weak	_ZNSt6chrono15duration_valuesIlE4zeroEv
	.type	_ZNSt6chrono15duration_valuesIlE4zeroEv, @function
_ZNSt6chrono15duration_valuesIlE4zeroEv:
.LFB5790:
	.cfi_startproc
	pushq	%rbp	#
	.cfi_def_cfa_offset 16
	.cfi_offset 6, -16
	movq	%rsp, %rbp	#,
	.cfi_def_cfa_register 6
# /opt/rh/devtoolset-7/root/usr/include/c++/7/chrono:280: 	{ return _Rep(0); }
	movl	$0, %eax	#, _1
	popq	%rbp	#
	.cfi_def_cfa 7, 8
	ret
	.cfi_endproc
.LFE5790:
	.size	_ZNSt6chrono15duration_valuesIlE4zeroEv, .-_ZNSt6chrono15duration_valuesIlE4zeroEv
	.section	.text._ZNSt5mutex4lockEv,"axG",@progbits,_ZNSt5mutex4lockEv,comdat
	.align 2
	.weak	_ZNSt5mutex4lockEv
	.type	_ZNSt5mutex4lockEv, @function
_ZNSt5mutex4lockEv:
.LFB5829:
	.cfi_startproc
	pushq	%rbp	#
	.cfi_def_cfa_offset 16
	.cfi_offset 6, -16
	movq	%rsp, %rbp	#,
	.cfi_def_cfa_register 6
	subq	$32, %rsp	#,
	movq	%rdi, -24(%rbp)	# this, this
# /opt/rh/devtoolset-7/root/usr/include/c++/7/bits/std_mutex.h:103:       int __e = __gthread_mutex_lock(&_M_mutex);
	movq	-24(%rbp), %rax	# this, _1
	movq	%rax, %rdi	# _1,
	call	_ZL20__gthread_mutex_lockP15pthread_mutex_t	#
	movl	%eax, -4(%rbp)	# tmp88, __e
# /opt/rh/devtoolset-7/root/usr/include/c++/7/bits/std_mutex.h:106:       if (__e)
	cmpl	$0, -4(%rbp)	#, __e
	je	.L108	#,
# /opt/rh/devtoolset-7/root/usr/include/c++/7/bits/std_mutex.h:107: 	__throw_system_error(__e);
	movl	-4(%rbp), %eax	# __e, tmp89
	movl	%eax, %edi	# tmp89,
	call	_ZSt20__throw_system_errori	#
.L108:
# /opt/rh/devtoolset-7/root/usr/include/c++/7/bits/std_mutex.h:108:     }
	nop
	leave
	.cfi_def_cfa 7, 8
	ret
	.cfi_endproc
.LFE5829:
	.size	_ZNSt5mutex4lockEv, .-_ZNSt5mutex4lockEv
	.section	.text._ZNSt5mutex6unlockEv,"axG",@progbits,_ZNSt5mutex6unlockEv,comdat
	.align 2
	.weak	_ZNSt5mutex6unlockEv
	.type	_ZNSt5mutex6unlockEv, @function
_ZNSt5mutex6unlockEv:
.LFB5831:
	.cfi_startproc
	pushq	%rbp	#
	.cfi_def_cfa_offset 16
	.cfi_offset 6, -16
	movq	%rsp, %rbp	#,
	.cfi_def_cfa_register 6
	subq	$16, %rsp	#,
	movq	%rdi, -8(%rbp)	# this, this
# /opt/rh/devtoolset-7/root/usr/include/c++/7/bits/std_mutex.h:121:       __gthread_mutex_unlock(&_M_mutex);
	movq	-8(%rbp), %rax	# this, _1
	movq	%rax, %rdi	# _1,
	call	_ZL22__gthread_mutex_unlockP15pthread_mutex_t	#
# /opt/rh/devtoolset-7/root/usr/include/c++/7/bits/std_mutex.h:122:     }
	nop
	leave
	.cfi_def_cfa 7, 8
	ret
	.cfi_endproc
.LFE5831:
	.size	_ZNSt5mutex6unlockEv, .-_ZNSt5mutex6unlockEv
	.section	.text._ZNSt5mutex13native_handleEv,"axG",@progbits,_ZNSt5mutex13native_handleEv,comdat
	.align 2
	.weak	_ZNSt5mutex13native_handleEv
	.type	_ZNSt5mutex13native_handleEv, @function
_ZNSt5mutex13native_handleEv:
.LFB5832:
	.cfi_startproc
	pushq	%rbp	#
	.cfi_def_cfa_offset 16
	.cfi_offset 6, -16
	movq	%rsp, %rbp	#,
	.cfi_def_cfa_register 6
	movq	%rdi, -8(%rbp)	# this, this
# /opt/rh/devtoolset-7/root/usr/include/c++/7/bits/std_mutex.h:126:     { return &_M_mutex; }
	movq	-8(%rbp), %rax	# this, _2
	popq	%rbp	#
	.cfi_def_cfa 7, 8
	ret
	.cfi_endproc
.LFE5832:
	.size	_ZNSt5mutex13native_handleEv, .-_ZNSt5mutex13native_handleEv
	.section	.rodata
	.type	_ZStL10defer_lock, @object
	.size	_ZStL10defer_lock, 1
_ZStL10defer_lock:
	.zero	1
	.type	_ZStL11try_to_lock, @object
	.size	_ZStL11try_to_lock, 1
_ZStL11try_to_lock:
	.zero	1
	.type	_ZStL10adopt_lock, @object
	.size	_ZStL10adopt_lock, 1
_ZStL10adopt_lock:
	.zero	1
	.section	.text._ZNSt6thread2idC2Ev,"axG",@progbits,_ZNSt6thread2idC5Ev,comdat
	.align 2
	.weak	_ZNSt6thread2idC2Ev
	.type	_ZNSt6thread2idC2Ev, @function
_ZNSt6thread2idC2Ev:
.LFB6037:
	.cfi_startproc
	pushq	%rbp	#
	.cfi_def_cfa_offset 16
	.cfi_offset 6, -16
	movq	%rsp, %rbp	#,
	.cfi_def_cfa_register 6
	movq	%rdi, -8(%rbp)	# this, this
# /opt/rh/devtoolset-7/root/usr/include/c++/7/thread:82:       id() noexcept : _M_thread() { }
	movq	-8(%rbp), %rax	# this, tmp87
	movq	$0, (%rax)	#, this_2(D)->_M_thread
	nop
	popq	%rbp	#
	.cfi_def_cfa 7, 8
	ret
	.cfi_endproc
.LFE6037:
	.size	_ZNSt6thread2idC2Ev, .-_ZNSt6thread2idC2Ev
	.weak	_ZNSt6thread2idC1Ev
	.set	_ZNSt6thread2idC1Ev,_ZNSt6thread2idC2Ev
	.section	.text._ZNSt6thread2idC2Em,"axG",@progbits,_ZNSt6thread2idC5Em,comdat
	.align 2
	.weak	_ZNSt6thread2idC2Em
	.type	_ZNSt6thread2idC2Em, @function
_ZNSt6thread2idC2Em:
.LFB6040:
	.cfi_startproc
	pushq	%rbp	#
	.cfi_def_cfa_offset 16
	.cfi_offset 6, -16
	movq	%rsp, %rbp	#,
	.cfi_def_cfa_register 6
	movq	%rdi, -8(%rbp)	# this, this
	movq	%rsi, -16(%rbp)	# __id, __id
# /opt/rh/devtoolset-7/root/usr/include/c++/7/thread:85:       id(native_handle_type __id) : _M_thread(__id) { }
	movq	-8(%rbp), %rax	# this, tmp87
	movq	-16(%rbp), %rdx	# __id, tmp88
	movq	%rdx, (%rax)	# tmp88, this_2(D)->_M_thread
	nop
	popq	%rbp	#
	.cfi_def_cfa 7, 8
	ret
	.cfi_endproc
.LFE6040:
	.size	_ZNSt6thread2idC2Em, .-_ZNSt6thread2idC2Em
	.weak	_ZNSt6thread2idC1Em
	.set	_ZNSt6thread2idC1Em,_ZNSt6thread2idC2Em
	.section	.text._ZNSt6threadD2Ev,"axG",@progbits,_ZNSt6threadD5Ev,comdat
	.align 2
	.weak	_ZNSt6threadD2Ev
	.type	_ZNSt6threadD2Ev, @function
_ZNSt6threadD2Ev:
.LFB6047:
	.cfi_startproc
	pushq	%rbp	#
	.cfi_def_cfa_offset 16
	.cfi_offset 6, -16
	movq	%rsp, %rbp	#,
	.cfi_def_cfa_register 6
	subq	$16, %rsp	#,
	movq	%rdi, -8(%rbp)	# this, this
# /opt/rh/devtoolset-7/root/usr/include/c++/7/thread:134:       if (joinable())
	movq	-8(%rbp), %rax	# this, tmp88
	movq	%rax, %rdi	# tmp88,
	call	_ZNKSt6thread8joinableEv	#
	testb	%al, %al	# retval.224_4
	je	.L116	#,
# /opt/rh/devtoolset-7/root/usr/include/c++/7/thread:135: 	std::terminate();
	call	_ZSt9terminatev	#
.L116:
# /opt/rh/devtoolset-7/root/usr/include/c++/7/thread:136:     }
	nop
	leave
	.cfi_def_cfa 7, 8
	ret
	.cfi_endproc
.LFE6047:
	.size	_ZNSt6threadD2Ev, .-_ZNSt6threadD2Ev
	.weak	_ZNSt6threadD1Ev
	.set	_ZNSt6threadD1Ev,_ZNSt6threadD2Ev
	.section	.text._ZNSt6thread4swapERS_,"axG",@progbits,_ZNSt6thread4swapERS_,comdat
	.align 2
	.weak	_ZNSt6thread4swapERS_
	.type	_ZNSt6thread4swapERS_, @function
_ZNSt6thread4swapERS_:
.LFB6050:
	.cfi_startproc
	pushq	%rbp	#
	.cfi_def_cfa_offset 16
	.cfi_offset 6, -16
	movq	%rsp, %rbp	#,
	.cfi_def_cfa_register 6
	subq	$16, %rsp	#,
	movq	%rdi, -8(%rbp)	# this, this
	movq	%rsi, -16(%rbp)	# __t, __t
# /opt/rh/devtoolset-7/root/usr/include/c++/7/thread:150:     { std::swap(_M_id, __t._M_id); }
	movq	-16(%rbp), %rdx	# __t, _1
	movq	-8(%rbp), %rax	# this, _2
	movq	%rdx, %rsi	# _1,
	movq	%rax, %rdi	# _2,
	call	_ZSt4swapINSt6thread2idEENSt9enable_ifIXsrSt6__and_IJSt6__not_ISt15__is_tuple_likeIT_EESt21is_move_constructibleIS6_ESt18is_move_assignableIS6_EEE5valueEvE4typeERS6_SG_	#
	nop
	leave
	.cfi_def_cfa 7, 8
	ret
	.cfi_endproc
.LFE6050:
	.size	_ZNSt6thread4swapERS_, .-_ZNSt6thread4swapERS_
	.section	.text._ZNKSt6thread8joinableEv,"axG",@progbits,_ZNKSt6thread8joinableEv,comdat
	.align 2
	.weak	_ZNKSt6thread8joinableEv
	.type	_ZNKSt6thread8joinableEv, @function
_ZNKSt6thread8joinableEv:
.LFB6051:
	.cfi_startproc
	pushq	%rbp	#
	.cfi_def_cfa_offset 16
	.cfi_offset 6, -16
	movq	%rsp, %rbp	#,
	.cfi_def_cfa_register 6
	subq	$32, %rsp	#,
	movq	%rdi, -24(%rbp)	# this, this
# /opt/rh/devtoolset-7/root/usr/include/c++/7/thread:154:     { return !(_M_id == id()); }
	leaq	-8(%rbp), %rax	#, tmp90
	movq	%rax, %rdi	# tmp90,
	call	_ZNSt6thread2idC1Ev	#
	movq	-8(%rbp), %rdx	# D.102565, tmp91
	movq	-24(%rbp), %rax	# this, tmp92
	movq	%rdx, %rsi	# tmp91,
	movq	(%rax), %rdi	# this_4(D)->_M_id,
	call	_ZSteqNSt6thread2idES0_	#
	xorl	$1, %eax	#, _6
	leave
	.cfi_def_cfa 7, 8
	ret
	.cfi_endproc
.LFE6051:
	.size	_ZNKSt6thread8joinableEv, .-_ZNKSt6thread8joinableEv
	.section	.text._ZSteqNSt6thread2idES0_,"axG",@progbits,_ZSteqNSt6thread2idES0_,comdat
	.weak	_ZSteqNSt6thread2idES0_
	.type	_ZSteqNSt6thread2idES0_, @function
_ZSteqNSt6thread2idES0_:
.LFB6061:
	.cfi_startproc
	pushq	%rbp	#
	.cfi_def_cfa_offset 16
	.cfi_offset 6, -16
	movq	%rsp, %rbp	#,
	.cfi_def_cfa_register 6
	movq	%rdi, -8(%rbp)	# __x, __x
	movq	%rsi, -16(%rbp)	# __y, __y
# /opt/rh/devtoolset-7/root/usr/include/c++/7/thread:273:     return __x._M_thread == __y._M_thread;
	movq	-8(%rbp), %rdx	# __x._M_thread, _1
	movq	-16(%rbp), %rax	# __y._M_thread, _2
	cmpq	%rax, %rdx	# _2, _1
	sete	%al	#, _4
# /opt/rh/devtoolset-7/root/usr/include/c++/7/thread:274:   }
	popq	%rbp	#
	.cfi_def_cfa 7, 8
	ret
	.cfi_endproc
.LFE6061:
	.size	_ZSteqNSt6thread2idES0_, .-_ZSteqNSt6thread2idES0_
	.section	.text._ZNKSt4hashINSt6thread2idEEclERKS1_,"axG",@progbits,_ZNKSt4hashINSt6thread2idEEclERKS1_,comdat
	.align 2
	.weak	_ZNKSt4hashINSt6thread2idEEclERKS1_
	.type	_ZNKSt4hashINSt6thread2idEEclERKS1_, @function
_ZNKSt4hashINSt6thread2idEEclERKS1_:
.LFB6067:
	.cfi_startproc
	.cfi_personality 0x3,__gxx_personality_v0
	.cfi_lsda 0x3,.LLSDA6067
	pushq	%rbp	#
	.cfi_def_cfa_offset 16
	.cfi_offset 6, -16
	movq	%rsp, %rbp	#,
	.cfi_def_cfa_register 6
	subq	$16, %rsp	#,
	movq	%rdi, -8(%rbp)	# this, this
	movq	%rsi, -16(%rbp)	# __id, __id
# /opt/rh/devtoolset-7/root/usr/include/c++/7/thread:308:       { return std::_Hash_impl::hash(__id._M_thread); }
	movq	-16(%rbp), %rax	# __id, _1
	movq	%rax, %rdi	# _1,
	call	_ZNSt10_Hash_impl4hashImEEmRKT_	#
	leave
	.cfi_def_cfa 7, 8
	ret
	.cfi_endproc
.LFE6067:
	.section	.gcc_except_table._ZNKSt4hashINSt6thread2idEEclERKS1_,"aG",@progbits,_ZNKSt4hashINSt6thread2idEEclERKS1_,comdat
.LLSDA6067:
	.byte	0xff
	.byte	0xff
	.byte	0x1
	.uleb128 .LLSDACSE6067-.LLSDACSB6067
.LLSDACSB6067:
.LLSDACSE6067:
	.section	.text._ZNKSt4hashINSt6thread2idEEclERKS1_,"axG",@progbits,_ZNKSt4hashINSt6thread2idEEclERKS1_,comdat
	.size	_ZNKSt4hashINSt6thread2idEEclERKS1_, .-_ZNKSt4hashINSt6thread2idEEclERKS1_
	.section	.text._ZNSt11this_thread6get_idEv,"axG",@progbits,_ZNSt11this_thread6get_idEv,comdat
	.weak	_ZNSt11this_thread6get_idEv
	.type	_ZNSt11this_thread6get_idEv, @function
_ZNSt11this_thread6get_idEv:
.LFB6069:
	.cfi_startproc
	pushq	%rbp	#
	.cfi_def_cfa_offset 16
	.cfi_offset 6, -16
	movq	%rsp, %rbp	#,
	.cfi_def_cfa_register 6
	subq	$16, %rsp	#,
# /opt/rh/devtoolset-7/root/usr/include/c++/7/thread:340:       if (!__gthread_active_p())
	call	_ZL18__gthread_active_pv	#
	testl	%eax, %eax	# _1
	sete	%al	#, retval.228_6
	testb	%al, %al	# retval.228_6
	je	.L125	#,
# /opt/rh/devtoolset-7/root/usr/include/c++/7/thread:341: 	return thread::id(1);
	leaq	-16(%rbp), %rax	#, tmp92
	movl	$1, %esi	#,
	movq	%rax, %rdi	# tmp92,
	call	_ZNSt6thread2idC1Em	#
	movq	-16(%rbp), %rax	# D.106511, D.258761
	jmp	.L126	#
.L125:
# /opt/rh/devtoolset-7/root/usr/include/c++/7/thread:343:       return thread::id(__gthread_self());
	call	_ZL14__gthread_selfv	#
	movq	%rax, %rdx	#, _2
	leaq	-8(%rbp), %rax	#, tmp93
	movq	%rdx, %rsi	# _2,
	movq	%rax, %rdi	# tmp93,
	call	_ZNSt6thread2idC1Em	#
	movq	-8(%rbp), %rax	# D.106512, D.258761
.L126:
# /opt/rh/devtoolset-7/root/usr/include/c++/7/thread:344:     }
	leave
	.cfi_def_cfa 7, 8
	ret
	.cfi_endproc
.LFE6069:
	.size	_ZNSt11this_thread6get_idEv, .-_ZNSt11this_thread6get_idEv
	.section	.text._ZNSt11this_thread5yieldEv,"axG",@progbits,_ZNSt11this_thread5yieldEv,comdat
	.weak	_ZNSt11this_thread5yieldEv
	.type	_ZNSt11this_thread5yieldEv, @function
_ZNSt11this_thread5yieldEv:
.LFB6070:
	.cfi_startproc
	pushq	%rbp	#
	.cfi_def_cfa_offset 16
	.cfi_offset 6, -16
	movq	%rsp, %rbp	#,
	.cfi_def_cfa_register 6
# /opt/rh/devtoolset-7/root/usr/include/c++/7/thread:351:       __gthread_yield();
	call	_ZL15__gthread_yieldv	#
# /opt/rh/devtoolset-7/root/usr/include/c++/7/thread:353:     }
	nop
	popq	%rbp	#
	.cfi_def_cfa 7, 8
	ret
	.cfi_endproc
.LFE6070:
	.size	_ZNSt11this_thread5yieldEv, .-_ZNSt11this_thread5yieldEv
	.section	.text._ZSt15make_error_codeSt11future_errc,"axG",@progbits,_ZSt15make_error_codeSt11future_errc,comdat
	.weak	_ZSt15make_error_codeSt11future_errc
	.type	_ZSt15make_error_codeSt11future_errc, @function
_ZSt15make_error_codeSt11future_errc:
.LFB6084:
	.cfi_startproc
	pushq	%rbp	#
	.cfi_def_cfa_offset 16
	.cfi_offset 6, -16
	movq	%rsp, %rbp	#,
	.cfi_def_cfa_register 6
	pushq	%rbx	#
	subq	$40, %rsp	#,
	.cfi_offset 3, -24
	movl	%edi, -36(%rbp)	# __errc, __errc
# /opt/rh/devtoolset-7/root/usr/include/c++/7/future:85:   { return error_code(static_cast<int>(__errc), future_category()); }
	call	_ZSt15future_categoryv	#
	movq	%rax, %rdx	#, _1
	movl	-36(%rbp), %ecx	# __errc, tmp91
	leaq	-32(%rbp), %rax	#, tmp92
	movl	%ecx, %esi	# tmp91,
	movq	%rax, %rdi	# tmp92,
	call	_ZNSt10error_codeC1EiRKNSt3_V214error_categoryE	#
	movq	-32(%rbp), %rax	# D.106683, D.259296
	movq	-24(%rbp), %rdx	# D.106683, D.259296
	movq	%rax, %rcx	# D.259296, tmp94
	movq	%rdx, %rbx	# D.259296,
	movl	%ecx, %eax	# <retval>,
	addq	$40, %rsp	#,
	popq	%rbx	#
	popq	%rbp	#
	.cfi_def_cfa 7, 8
	ret
	.cfi_endproc
.LFE6084:
	.size	_ZSt15make_error_codeSt11future_errc, .-_ZSt15make_error_codeSt11future_errc
	.section	.text._ZNSt12future_errorC2ESt11future_errc,"axG",@progbits,_ZNSt12future_errorC5ESt11future_errc,comdat
	.align 2
	.weak	_ZNSt12future_errorC2ESt11future_errc
	.type	_ZNSt12future_errorC2ESt11future_errc, @function
_ZNSt12future_errorC2ESt11future_errc:
.LFB6087:
	.cfi_startproc
	pushq	%rbp	#
	.cfi_def_cfa_offset 16
	.cfi_offset 6, -16
	movq	%rsp, %rbp	#,
	.cfi_def_cfa_register 6
	pushq	%rbx	#
	subq	$24, %rsp	#,
	.cfi_offset 3, -24
	movq	%rdi, -24(%rbp)	# this, this
	movl	%esi, -28(%rbp)	# __errc, __errc
# /opt/rh/devtoolset-7/root/usr/include/c++/7/future:101:     : future_error(std::make_error_code(__errc))
	movl	-28(%rbp), %eax	# __errc, tmp88
	movl	%eax, %edi	# tmp88,
	call	_ZSt15make_error_codeSt11future_errc	#
	movq	%rdx, %rcx	#, tmp90
	movq	%rcx, %rdx	# tmp90, D.259295
	movq	%rax, %rcx	# D.259295, tmp91
	movq	%rdx, %rbx	# D.259295,
	movq	-24(%rbp), %rax	# this, tmp95
	movl	%ecx, %esi	# tmp93,
	movq	%rax, %rdi	# tmp95,
	call	_ZNSt12future_errorC1ESt10error_code	#
# /opt/rh/devtoolset-7/root/usr/include/c++/7/future:102:     { }
	nop
	addq	$24, %rsp	#,
	popq	%rbx	#
	popq	%rbp	#
	.cfi_def_cfa 7, 8
	ret
	.cfi_endproc
.LFE6087:
	.size	_ZNSt12future_errorC2ESt11future_errc, .-_ZNSt12future_errorC2ESt11future_errc
	.weak	_ZNSt12future_errorC1ESt11future_errc
	.set	_ZNSt12future_errorC1ESt11future_errc,_ZNSt12future_errorC2ESt11future_errc
	.section	.rodata
.LC0:
	.string	"std::future_error: "
	.section	.text._ZNSt12future_errorC2ESt10error_code,"axG",@progbits,_ZNSt12future_errorC5ESt10error_code,comdat
	.align 2
	.weak	_ZNSt12future_errorC2ESt10error_code
	.type	_ZNSt12future_errorC2ESt10error_code, @function
_ZNSt12future_errorC2ESt10error_code:
.LFB6091:
	.cfi_startproc
	.cfi_personality 0x3,__gxx_personality_v0
	.cfi_lsda 0x3,.LLSDA6091
	pushq	%rbp	#
	.cfi_def_cfa_offset 16
	.cfi_offset 6, -16
	movq	%rsp, %rbp	#,
	.cfi_def_cfa_register 6
	pushq	%rbx	#
	subq	$56, %rsp	#,
	.cfi_offset 3, -24
	movq	%rdi, -40(%rbp)	# this, this
	movl	%esi, %eax	# __ec, tmp92
	movq	%rdx, %rcx	# __ec, tmp93
	movq	%rcx, %rdx	# tmp93,
	movq	%rax, -64(%rbp)	# tmp91, __ec
	movq	%rdx, -56(%rbp)	#, __ec
# /opt/rh/devtoolset-7/root/usr/include/c++/7/future:115:     : logic_error("std::future_error: " + __ec.message()), _M_code(__ec)
	movq	-40(%rbp), %rbx	# this, _1
	leaq	-24(%rbp), %rax	#, tmp94
	leaq	-64(%rbp), %rdx	#, tmp95
	movq	%rdx, %rsi	# tmp95,
	movq	%rax, %rdi	# tmp94,
.LEHB0:
	call	_ZNKSt10error_code7messageEv	#
.LEHE0:
	leaq	-32(%rbp), %rax	#, tmp96
	leaq	-24(%rbp), %rdx	#, tmp97
	movl	$.LC0, %esi	#,
	movq	%rax, %rdi	# tmp96,
.LEHB1:
	call	_ZStplIcSt11char_traitsIcESaIcEESbIT_T0_T1_EPKS3_OS6_	#
.LEHE1:
# /opt/rh/devtoolset-7/root/usr/include/c++/7/future:115:     : logic_error("std::future_error: " + __ec.message()), _M_code(__ec)
	leaq	-32(%rbp), %rax	#, tmp98
	movq	%rax, %rsi	# tmp98,
	movq	%rbx, %rdi	# _1,
.LEHB2:
	call	_ZNSt11logic_errorC2ERKSs	#
.LEHE2:
# /opt/rh/devtoolset-7/root/usr/include/c++/7/future:115:     : logic_error("std::future_error: " + __ec.message()), _M_code(__ec)
	leaq	-32(%rbp), %rax	#, tmp99
	movq	%rax, %rdi	# tmp99,
	call	_ZNSsD1Ev	#
	leaq	-24(%rbp), %rax	#, tmp100
	movq	%rax, %rdi	# tmp100,
	call	_ZNSsD1Ev	#
	movl	$_ZTVSt12future_error+16, %edx	#, _2
	movq	-40(%rbp), %rax	# this, tmp101
	movq	%rdx, (%rax)	# _2, this_6(D)->D.106727.D.26135._vptr.exception
	movq	-40(%rbp), %rcx	# this, tmp102
	movq	-64(%rbp), %rax	# __ec, tmp103
	movq	-56(%rbp), %rdx	# __ec,
	movq	%rax, 16(%rcx)	# tmp103, this_6(D)->_M_code
	movq	%rdx, 24(%rcx)	#, this_6(D)->_M_code
# /opt/rh/devtoolset-7/root/usr/include/c++/7/future:116:     { }
	jmp	.L136	#
.L135:
	movq	%rax, %rbx	#, tmp106
# /opt/rh/devtoolset-7/root/usr/include/c++/7/future:115:     : logic_error("std::future_error: " + __ec.message()), _M_code(__ec)
	leaq	-32(%rbp), %rax	#, tmp104
	movq	%rax, %rdi	# tmp104,
	call	_ZNSsD1Ev	#
	jmp	.L133	#
.L134:
	movq	%rax, %rbx	#, tmp105
.L133:
# /opt/rh/devtoolset-7/root/usr/include/c++/7/future:115:     : logic_error("std::future_error: " + __ec.message()), _M_code(__ec)
	leaq	-24(%rbp), %rax	#, tmp109
	movq	%rax, %rdi	# tmp109,
	call	_ZNSsD1Ev	#
	movq	%rbx, %rax	# tmp105, D.261639
	movq	%rax, %rdi	# D.261639,
.LEHB3:
	call	_Unwind_Resume	#
.LEHE3:
.L136:
# /opt/rh/devtoolset-7/root/usr/include/c++/7/future:116:     { }
	addq	$56, %rsp	#,
	popq	%rbx	#
	popq	%rbp	#
	.cfi_def_cfa 7, 8
	ret
	.cfi_endproc
.LFE6091:
	.section	.gcc_except_table._ZNSt12future_errorC2ESt10error_code,"aG",@progbits,_ZNSt12future_errorC5ESt10error_code,comdat
.LLSDA6091:
	.byte	0xff
	.byte	0xff
	.byte	0x1
	.uleb128 .LLSDACSE6091-.LLSDACSB6091
.LLSDACSB6091:
	.uleb128 .LEHB0-.LFB6091
	.uleb128 .LEHE0-.LEHB0
	.uleb128 0
	.uleb128 0
	.uleb128 .LEHB1-.LFB6091
	.uleb128 .LEHE1-.LEHB1
	.uleb128 .L134-.LFB6091
	.uleb128 0
	.uleb128 .LEHB2-.LFB6091
	.uleb128 .LEHE2-.LEHB2
	.uleb128 .L135-.LFB6091
	.uleb128 0
	.uleb128 .LEHB3-.LFB6091
	.uleb128 .LEHE3-.LEHB3
	.uleb128 0
	.uleb128 0
.LLSDACSE6091:
	.section	.text._ZNSt12future_errorC2ESt10error_code,"axG",@progbits,_ZNSt12future_errorC5ESt10error_code,comdat
	.size	_ZNSt12future_errorC2ESt10error_code, .-_ZNSt12future_errorC2ESt10error_code
	.weak	_ZNSt12future_errorC1ESt10error_code
	.set	_ZNSt12future_errorC1ESt10error_code,_ZNSt12future_errorC2ESt10error_code
	.section	.text._ZNKSt13__future_base12_Result_base8_DeleterclEPS0_,"axG",@progbits,_ZNKSt13__future_base12_Result_base8_DeleterclEPS0_,comdat
	.align 2
	.weak	_ZNKSt13__future_base12_Result_base8_DeleterclEPS0_
	.type	_ZNKSt13__future_base12_Result_base8_DeleterclEPS0_, @function
_ZNKSt13__future_base12_Result_base8_DeleterclEPS0_:
.LFB6100:
	.cfi_startproc
	pushq	%rbp	#
	.cfi_def_cfa_offset 16
	.cfi_offset 6, -16
	movq	%rsp, %rbp	#,
	.cfi_def_cfa_register 6
	subq	$16, %rsp	#,
	movq	%rdi, -8(%rbp)	# this, this
	movq	%rsi, -16(%rbp)	# __fr, __fr
# /opt/rh/devtoolset-7/root/usr/include/c++/7/future:213: 	void operator()(_Result_base* __fr) const { __fr->_M_destroy(); }
	movq	-16(%rbp), %rax	# __fr, tmp89
	movq	(%rax), %rax	# __fr_4(D)->_vptr._Result_base, _1
	movq	(%rax), %rax	# *_1, _2
	movq	-16(%rbp), %rdx	# __fr, tmp90
	movq	%rdx, %rdi	# tmp90,
	call	*%rax	# _2
	nop
	leave
	.cfi_def_cfa 7, 8
	ret
	.cfi_endproc
.LFE6100:
	.size	_ZNKSt13__future_base12_Result_base8_DeleterclEPS0_, .-_ZNKSt13__future_base12_Result_base8_DeleterclEPS0_
	.section	.text._ZNSt9once_flagC2Ev,"axG",@progbits,_ZNSt9once_flagC5Ev,comdat
	.align 2
	.weak	_ZNSt9once_flagC2Ev
	.type	_ZNSt9once_flagC2Ev, @function
_ZNSt9once_flagC2Ev:
.LFB6113:
	.cfi_startproc
	pushq	%rbp	#
	.cfi_def_cfa_offset 16
	.cfi_offset 6, -16
	movq	%rsp, %rbp	#,
	.cfi_def_cfa_register 6
	movq	%rdi, -8(%rbp)	# this, this
# /opt/rh/devtoolset-7/root/usr/include/c++/7/mutex:637:     constexpr once_flag() noexcept = default;
	movq	-8(%rbp), %rax	# this, tmp87
	movl	$0, (%rax)	#, this_2(D)->_M_once
	nop
	popq	%rbp	#
	.cfi_def_cfa 7, 8
	ret
	.cfi_endproc
.LFE6113:
	.size	_ZNSt9once_flagC2Ev, .-_ZNSt9once_flagC2Ev
	.weak	_ZNSt9once_flagC1Ev
	.set	_ZNSt9once_flagC1Ev,_ZNSt9once_flagC2Ev
	.section	.text._ZNSt13__future_base13_State_baseV2C2Ev,"axG",@progbits,_ZNSt13__future_base13_State_baseV2C5Ev,comdat
	.align 2
	.weak	_ZNSt13__future_base13_State_baseV2C2Ev
	.type	_ZNSt13__future_base13_State_baseV2C2Ev, @function
_ZNSt13__future_base13_State_baseV2C2Ev:
.LFB6115:
	.cfi_startproc
	pushq	%rbp	#
	.cfi_def_cfa_offset 16
	.cfi_offset 6, -16
	movq	%rsp, %rbp	#,
	.cfi_def_cfa_register 6
	subq	$16, %rsp	#,
	movq	%rdi, -8(%rbp)	# this, this
# /opt/rh/devtoolset-7/root/usr/include/c++/7/future:324:       _State_baseV2() noexcept : _M_result(), _M_status(_Status::__not_ready)
	movl	$_ZTVNSt13__future_base13_State_baseV2E+16, %edx	#, _1
	movq	-8(%rbp), %rax	# this, tmp93
	movq	%rdx, (%rax)	# _1, this_8(D)->_vptr._State_baseV2
	movq	-8(%rbp), %rax	# this, tmp94
	addq	$8, %rax	#, _2
	movq	%rax, %rdi	# _2,
	call	_ZNSt10unique_ptrINSt13__future_base12_Result_baseENS1_8_DeleterEEC1IS2_vEEv	#
	movq	-8(%rbp), %rax	# this, tmp95
	addq	$16, %rax	#, _3
	movl	$0, %esi	#,
	movq	%rax, %rdi	# _3,
	call	_ZNSt23__atomic_futex_unsignedILj2147483648EEC1Ej	#
	movq	-8(%rbp), %rax	# this, tmp96
	addq	$20, %rax	#, _4
	movl	$0, %esi	#,
	movq	%rax, %rdi	# _4,
	call	_ZNSt11atomic_flagC1Eb	#
	movq	-8(%rbp), %rax	# this, tmp97
	addq	$24, %rax	#, _5
	movq	%rax, %rdi	# _5,
	call	_ZNSt9once_flagC1Ev	#
# /opt/rh/devtoolset-7/root/usr/include/c++/7/future:325: 	{ }
	nop
	leave
	.cfi_def_cfa 7, 8
	ret
	.cfi_endproc
.LFE6115:
	.size	_ZNSt13__future_base13_State_baseV2C2Ev, .-_ZNSt13__future_base13_State_baseV2C2Ev
	.weak	_ZNSt13__future_base13_State_baseV2C1Ev
	.set	_ZNSt13__future_base13_State_baseV2C1Ev,_ZNSt13__future_base13_State_baseV2C2Ev
	.section	.text._ZNSt13__future_base13_State_baseV24waitEv,"axG",@progbits,_ZNSt13__future_base13_State_baseV24waitEv,comdat
	.align 2
	.weak	_ZNSt13__future_base13_State_baseV24waitEv
	.type	_ZNSt13__future_base13_State_baseV24waitEv, @function
_ZNSt13__future_base13_State_baseV24waitEv:
.LFB6117:
	.cfi_startproc
	pushq	%rbp	#
	.cfi_def_cfa_offset 16
	.cfi_offset 6, -16
	movq	%rsp, %rbp	#,
	.cfi_def_cfa_register 6
	subq	$80, %rsp	#,
	movq	%rdi, -72(%rbp)	# this, this
# /opt/rh/devtoolset-7/root/usr/include/c++/7/future:334: 	_M_complete_async();
	movq	-72(%rbp), %rax	# this, tmp100
	movq	(%rax), %rax	# this_7(D)->_vptr._State_baseV2, _1
	addq	$16, %rax	#, _2
	movq	(%rax), %rax	# *_2, _3
	movq	-72(%rbp), %rdx	# this, tmp101
	movq	%rdx, %rdi	# tmp101,
	call	*%rax	# _3
# /opt/rh/devtoolset-7/root/usr/include/c++/7/future:337: 	_M_status._M_load_when_equal(_Status::__ready, memory_order_acquire);
	movq	-72(%rbp), %rax	# this, tmp102
	addq	$16, %rax	#, _4
	movq	%rax, -8(%rbp)	# _4, this
	movl	$1, -12(%rbp)	#, __val
	movl	$2, -16(%rbp)	#, __mo
	movq	-8(%rbp), %rax	# this, tmp103
	movq	%rax, -24(%rbp)	# tmp103, this
	movl	-16(%rbp), %eax	# __mo, tmp104
	movl	%eax, -28(%rbp)	# tmp104, __mo
# /opt/rh/devtoolset-7/root/usr/include/c++/7/bits/atomic_futex.h:80:       return _M_data.load(__mo) & ~_Waiter_bit;
	movq	-24(%rbp), %rax	# this, _16
	movq	%rax, -40(%rbp)	# _16, this
	movl	-28(%rbp), %eax	# __mo, tmp105
	movl	%eax, -44(%rbp)	# tmp105, __m
# /opt/rh/devtoolset-7/root/usr/include/c++/7/bits/atomic_base.h:392: 	memory_order __b = __m & __memory_order_mask;
	movl	-44(%rbp), %eax	# __m, tmp106
	movl	$65535, %esi	#,
	movl	%eax, %edi	# tmp106,
	call	_ZStanSt12memory_orderSt23__memory_order_modifier	#
	movl	%eax, -48(%rbp)	# tmp107, __b
# /opt/rh/devtoolset-7/root/usr/include/c++/7/bits/atomic_base.h:396: 	return __atomic_load_n(&_M_i, __m);
	movq	-40(%rbp), %rax	# this, _21
	movl	(%rax), %eax	#* _21, _22
# /opt/rh/devtoolset-7/root/usr/include/c++/7/bits/atomic_futex.h:80:       return _M_data.load(__mo) & ~_Waiter_bit;
	andl	$2147483647, %eax	#, _25
# /opt/rh/devtoolset-7/root/usr/include/c++/7/bits/atomic_futex.h:158:       unsigned __i = _M_load(__mo);
	movl	%eax, -52(%rbp)	# _25, __i
# /opt/rh/devtoolset-7/root/usr/include/c++/7/bits/atomic_futex.h:159:       if ((__i & ~_Waiter_bit) == __val)
	movl	-52(%rbp), %eax	# __i, tmp108
	andl	$2147483647, %eax	#, _28
	cmpl	%eax, -12(%rbp)	# _28, __val
	je	.L143	#,
# /opt/rh/devtoolset-7/root/usr/include/c++/7/bits/atomic_futex.h:162:       _M_load_and_test(__i, __val, true, __mo);
	movl	-16(%rbp), %ecx	# __mo, tmp109
	movl	-12(%rbp), %edx	# __val, tmp110
	movl	-52(%rbp), %esi	# __i, tmp111
	movq	-8(%rbp), %rax	# this, tmp112
	movl	%ecx, %r8d	# tmp109,
	movl	$1, %ecx	#,
	movq	%rax, %rdi	# tmp112,
	call	_ZNSt23__atomic_futex_unsignedILj2147483648EE16_M_load_and_testEjjbSt12memory_order	#
.L143:
# /opt/rh/devtoolset-7/root/usr/include/c++/7/future:338: 	return *_M_result;
	movq	-72(%rbp), %rax	# this, tmp113
	addq	$8, %rax	#, _5
	movq	%rax, %rdi	# _5,
	call	_ZNKSt10unique_ptrINSt13__future_base12_Result_baseENS1_8_DeleterEEdeEv	#
# /opt/rh/devtoolset-7/root/usr/include/c++/7/future:339:       }
	leave
	.cfi_def_cfa 7, 8
	ret
	.cfi_endproc
.LFE6117:
	.size	_ZNSt13__future_base13_State_baseV24waitEv, .-_ZNSt13__future_base13_State_baseV24waitEv
	.section	.text._ZNSt13__future_base13_State_baseV213_M_set_resultESt8functionIFSt10unique_ptrINS_12_Result_baseENS3_8_DeleterEEvEEb,"axG",@progbits,_ZNSt13__future_base13_State_baseV213_M_set_resultESt8functionIFSt10unique_ptrINS_12_Result_baseENS3_8_DeleterEEvEEb,comdat
	.align 2
	.weak	_ZNSt13__future_base13_State_baseV213_M_set_resultESt8functionIFSt10unique_ptrINS_12_Result_baseENS3_8_DeleterEEvEEb
	.type	_ZNSt13__future_base13_State_baseV213_M_set_resultESt8functionIFSt10unique_ptrINS_12_Result_baseENS3_8_DeleterEEvEEb, @function
_ZNSt13__future_base13_State_baseV213_M_set_resultESt8functionIFSt10unique_ptrINS_12_Result_baseENS3_8_DeleterEEvEEb:
.LFB6120:
	.cfi_startproc
	pushq	%rbp	#
	.cfi_def_cfa_offset 16
	.cfi_offset 6, -16
	movq	%rsp, %rbp	#,
	.cfi_def_cfa_register 6
	addq	$-128, %rsp	#,
	movq	%rdi, -104(%rbp)	# this, this
	movq	%rsi, -112(%rbp)	# __res, __res
	movl	%edx, %eax	# __ignore_failure, tmp99
	movb	%al, -116(%rbp)	# tmp100, __ignore_failure
# /opt/rh/devtoolset-7/root/usr/include/c++/7/future:398: 	bool __did_set = false;
	movb	$0, -89(%rbp)	#, __did_set
# /opt/rh/devtoolset-7/root/usr/include/c++/7/future:402: 		  std::__addressof(__res), std::__addressof(__did_set));
	leaq	-89(%rbp), %rax	#, tmp101
	movq	%rax, %rdi	# tmp101,
	call	_ZSt11__addressofIbEPT_RS0_	#
	movq	%rax, -88(%rbp)	# _1, D.111982
	movq	-112(%rbp), %rax	# __res, tmp102
	movq	%rax, %rdi	# tmp102,
	call	_ZSt11__addressofISt8functionIFSt10unique_ptrINSt13__future_base12_Result_baseENS3_8_DeleterEEvEEEPT_RS8_	#
	movq	%rax, -80(%rbp)	# _2, D.111981
# /opt/rh/devtoolset-7/root/usr/include/c++/7/future:401: 	call_once(_M_once, &_State_baseV2::_M_do_set, this,
	movq	-104(%rbp), %rax	# this, tmp103
	movq	%rax, -72(%rbp)	# tmp103, D.111980
	movq	$_ZNSt13__future_base13_State_baseV29_M_do_setEPSt8functionIFSt10unique_ptrINS_12_Result_baseENS3_8_DeleterEEvEEPb, -64(%rbp)	#, D.111979.__pfn
	movq	$0, -56(%rbp)	#, D.111979.__delta
	movq	-104(%rbp), %rax	# this, tmp104
	leaq	24(%rax), %rdi	#, _3
	leaq	-88(%rbp), %rsi	#, tmp105
	leaq	-80(%rbp), %rcx	#, tmp106
	leaq	-72(%rbp), %rdx	#, tmp107
	leaq	-64(%rbp), %rax	#, tmp108
	movq	%rsi, %r8	# tmp105,
	movq	%rax, %rsi	# tmp108,
	call	_ZSt9call_onceIMNSt13__future_base13_State_baseV2EFvPSt8functionIFSt10unique_ptrINS0_12_Result_baseENS4_8_DeleterEEvEEPbEJPS1_S9_SA_EEvRSt9once_flagOT_DpOT0_	#
# /opt/rh/devtoolset-7/root/usr/include/c++/7/future:403: 	if (__did_set)
	movzbl	-89(%rbp), %eax	# __did_set, __did_set.244_4
	testb	%al, %al	# __did_set.244_4
	je	.L146	#,
# /opt/rh/devtoolset-7/root/usr/include/c++/7/future:405: 	  _M_status._M_store_notify_all(_Status::__ready,
	movq	-104(%rbp), %rax	# this, tmp109
	addq	$16, %rax	#, _5
	movq	%rax, -8(%rbp)	# _5, this
	movl	$1, -12(%rbp)	#, __val
	movl	$3, -16(%rbp)	#, __mo
# /opt/rh/devtoolset-7/root/usr/include/c++/7/bits/atomic_futex.h:206:       unsigned* __futex = (unsigned *)(void *)&_M_data;
	movq	-8(%rbp), %rax	# this, tmp110
	movq	%rax, -24(%rbp)	# tmp110, __futex
# /opt/rh/devtoolset-7/root/usr/include/c++/7/bits/atomic_futex.h:207:       if (_M_data.exchange(__val, __mo) & _Waiter_bit)
	movq	-8(%rbp), %rax	# this, _37
	movq	%rax, -32(%rbp)	# _37, this
	movl	-12(%rbp), %eax	# __val, tmp111
	movl	%eax, -36(%rbp)	# tmp111, __i
	movl	-16(%rbp), %eax	# __mo, tmp112
	movl	%eax, -40(%rbp)	# tmp112, __m
# /opt/rh/devtoolset-7/root/usr/include/c++/7/bits/atomic_base.h:413: 	return __atomic_exchange_n(&_M_i, __i, __m);
	movq	-32(%rbp), %rax	# this, _42
	movl	-36(%rbp), %edx	# __i, tmp113
	xchgl	(%rax), %edx	#,* _42, _43
# /opt/rh/devtoolset-7/root/usr/include/c++/7/bits/atomic_futex.h:207:       if (_M_data.exchange(__val, __mo) & _Waiter_bit)
	movl	%edx, %eax	# _43, _46
	shrl	$31, %eax	#, tmp114
	testb	%al, %al	# retval.249_47
	je	.L150	#,
# /opt/rh/devtoolset-7/root/usr/include/c++/7/bits/atomic_futex.h:208: 	_M_futex_notify_all(__futex);
	movq	-24(%rbp), %rax	# __futex, tmp115
	movq	%rax, %rdi	# tmp115,
	call	_ZNSt28__atomic_futex_unsigned_base19_M_futex_notify_allEPj	#
# /opt/rh/devtoolset-7/root/usr/include/c++/7/future:409:       }
	jmp	.L150	#
.L146:
# /opt/rh/devtoolset-7/root/usr/include/c++/7/future:407: 	else if (!__ignore_failure)
	movzbl	-116(%rbp), %eax	# __ignore_failure, tmp116
	xorl	$1, %eax	#, _6
	testb	%al, %al	# _6
	je	.L150	#,
# /opt/rh/devtoolset-7/root/usr/include/c++/7/future:408:           __throw_future_error(int(future_errc::promise_already_satisfied));
	movl	$2, %edi	#,
	call	_ZSt20__throw_future_errori	#
.L150:
# /opt/rh/devtoolset-7/root/usr/include/c++/7/future:409:       }
	nop
	leave
	.cfi_def_cfa 7, 8
	ret
	.cfi_endproc
.LFE6120:
	.size	_ZNSt13__future_base13_State_baseV213_M_set_resultESt8functionIFSt10unique_ptrINS_12_Result_baseENS3_8_DeleterEEvEEb, .-_ZNSt13__future_base13_State_baseV213_M_set_resultESt8functionIFSt10unique_ptrINS_12_Result_baseENS3_8_DeleterEEvEEb
	.section	.text._ZNSt11logic_errorC2ERKS_,"axG",@progbits,_ZNSt11logic_errorC5ERKS_,comdat
	.align 2
	.weak	_ZNSt11logic_errorC2ERKS_
	.type	_ZNSt11logic_errorC2ERKS_, @function
_ZNSt11logic_errorC2ERKS_:
.LFB6138:
	.cfi_startproc
	.cfi_personality 0x3,__gxx_personality_v0
	.cfi_lsda 0x3,.LLSDA6138
	pushq	%rbp	#
	.cfi_def_cfa_offset 16
	.cfi_offset 6, -16
	movq	%rsp, %rbp	#,
	.cfi_def_cfa_register 6
	pushq	%rbx	#
	subq	$24, %rsp	#,
	.cfi_offset 3, -24
	movq	%rdi, -24(%rbp)	# this, this
	movq	%rsi, -32(%rbp)	# D.106742, D.106742
# /opt/rh/devtoolset-7/root/usr/include/c++/7/stdexcept:113:   class logic_error : public exception
	movq	-24(%rbp), %rax	# this, _1
	movq	-32(%rbp), %rdx	# D.106742, _2
	movq	%rdx, %rsi	# _2,
	movq	%rax, %rdi	# _1,
	call	_ZNSt9exceptionC2ERKS_	#
	movl	$_ZTVSt11logic_error+16, %edx	#, _3
	movq	-24(%rbp), %rax	# this, tmp95
	movq	%rdx, (%rax)	# _3, this_9(D)->D.26135._vptr.exception
	movq	-24(%rbp), %rax	# this, tmp96
	addq	$8, %rax	#, _4
	movq	-32(%rbp), %rdx	# D.106742, tmp97
	addq	$8, %rdx	#, _5
	movq	%rdx, %rsi	# _5,
	movq	%rax, %rdi	# _4,
.LEHB4:
	call	_ZNSsC1ERKSs	#
.LEHE4:
	jmp	.L154	#
.L153:
	movq	%rax, %rbx	#, tmp98
	movq	-24(%rbp), %rax	# this, _7
	movq	%rax, %rdi	# _7,
	call	_ZNSt9exceptionD2Ev	#
	movq	%rbx, %rax	# tmp98, D.261643
	movq	%rax, %rdi	# D.261643,
.LEHB5:
	call	_Unwind_Resume	#
.LEHE5:
.L154:
	addq	$24, %rsp	#,
	popq	%rbx	#
	popq	%rbp	#
	.cfi_def_cfa 7, 8
	ret
	.cfi_endproc
.LFE6138:
	.section	.gcc_except_table._ZNSt11logic_errorC2ERKS_,"aG",@progbits,_ZNSt11logic_errorC5ERKS_,comdat
.LLSDA6138:
	.byte	0xff
	.byte	0xff
	.byte	0x1
	.uleb128 .LLSDACSE6138-.LLSDACSB6138
.LLSDACSB6138:
	.uleb128 .LEHB4-.LFB6138
	.uleb128 .LEHE4-.LEHB4
	.uleb128 .L153-.LFB6138
	.uleb128 0
	.uleb128 .LEHB5-.LFB6138
	.uleb128 .LEHE5-.LEHB5
	.uleb128 0
	.uleb128 0
.LLSDACSE6138:
	.section	.text._ZNSt11logic_errorC2ERKS_,"axG",@progbits,_ZNSt11logic_errorC5ERKS_,comdat
	.size	_ZNSt11logic_errorC2ERKS_, .-_ZNSt11logic_errorC2ERKS_
	.weak	_ZNSt11logic_errorC1ERKS_
	.set	_ZNSt11logic_errorC1ERKS_,_ZNSt11logic_errorC2ERKS_
	.section	.text._ZNSt12future_errorC2ERKS_,"axG",@progbits,_ZNSt12future_errorC5ERKS_,comdat
	.align 2
	.weak	_ZNSt12future_errorC2ERKS_
	.type	_ZNSt12future_errorC2ERKS_, @function
_ZNSt12future_errorC2ERKS_:
.LFB6140:
	.cfi_startproc
	pushq	%rbp	#
	.cfi_def_cfa_offset 16
	.cfi_offset 6, -16
	movq	%rsp, %rbp	#,
	.cfi_def_cfa_register 6
	subq	$16, %rsp	#,
	movq	%rdi, -8(%rbp)	# this, this
	movq	%rsi, -16(%rbp)	# D.106751, D.106751
# /opt/rh/devtoolset-7/root/usr/include/c++/7/future:96:   class future_error : public logic_error
	movq	-8(%rbp), %rax	# this, _1
	movq	-16(%rbp), %rdx	# D.106751, _2
	movq	%rdx, %rsi	# _2,
	movq	%rax, %rdi	# _1,
	call	_ZNSt11logic_errorC2ERKS_	#
	movl	$_ZTVSt12future_error+16, %edx	#, _3
	movq	-8(%rbp), %rax	# this, tmp91
	movq	%rdx, (%rax)	# _3, this_6(D)->D.106727.D.26135._vptr.exception
	movq	-8(%rbp), %rcx	# this, tmp92
	movq	-16(%rbp), %rax	# D.106751, tmp93
	movq	24(%rax), %rdx	# _8(D)->_M_code,
	movq	16(%rax), %rax	# _8(D)->_M_code, tmp94
	movq	%rax, 16(%rcx)	# tmp94, this_6(D)->_M_code
	movq	%rdx, 24(%rcx)	#, this_6(D)->_M_code
	nop
	leave
	.cfi_def_cfa 7, 8
	ret
	.cfi_endproc
.LFE6140:
	.size	_ZNSt12future_errorC2ERKS_, .-_ZNSt12future_errorC2ERKS_
	.weak	_ZNSt12future_errorC1ERKS_
	.set	_ZNSt12future_errorC1ERKS_,_ZNSt12future_errorC2ERKS_
	.section	.text._ZNSt13__future_base13_State_baseV216_M_break_promiseESt10unique_ptrINS_12_Result_baseENS2_8_DeleterEE,"axG",@progbits,_ZNSt13__future_base13_State_baseV216_M_break_promiseESt10unique_ptrINS_12_Result_baseENS2_8_DeleterEE,comdat
	.align 2
	.weak	_ZNSt13__future_base13_State_baseV216_M_break_promiseESt10unique_ptrINS_12_Result_baseENS2_8_DeleterEE
	.type	_ZNSt13__future_base13_State_baseV216_M_break_promiseESt10unique_ptrINS_12_Result_baseENS2_8_DeleterEE, @function
_ZNSt13__future_base13_State_baseV216_M_break_promiseESt10unique_ptrINS_12_Result_baseENS2_8_DeleterEE:
.LFB6135:
	.cfi_startproc
	pushq	%rbp	#
	.cfi_def_cfa_offset 16
	.cfi_offset 6, -16
	movq	%rsp, %rbp	#,
	.cfi_def_cfa_register 6
	subq	$112, %rsp	#,
	movq	%rdi, -104(%rbp)	# this, this
	movq	%rsi, -112(%rbp)	# __res, __res
# /opt/rh/devtoolset-7/root/usr/include/c++/7/future:435: 	if (static_cast<bool>(__res))
	movq	-112(%rbp), %rax	# __res, tmp98
	movq	%rax, %rdi	# tmp98,
	call	_ZNKSt10unique_ptrINSt13__future_base12_Result_baseENS1_8_DeleterEEcvbEv	#
	testb	%al, %al	# retval.258_9
	je	.L160	#,
# /opt/rh/devtoolset-7/root/usr/include/c++/7/future:438: 	      make_exception_ptr(future_error(future_errc::broken_promise));
	leaq	-80(%rbp), %rax	#, tmp99
	movl	$4, %esi	#,
	movq	%rax, %rdi	# tmp99,
	call	_ZNSt12future_errorC1ESt11future_errc	#
	leaq	-88(%rbp), %rax	#, tmp100
	leaq	-80(%rbp), %rdx	#, tmp101
	movq	%rdx, %rsi	# tmp101,
	movq	%rax, %rdi	# tmp100,
	call	_ZSt18make_exception_ptrISt12future_errorENSt15__exception_ptr13exception_ptrET_	#
# /opt/rh/devtoolset-7/root/usr/include/c++/7/future:437: 	    __res->_M_error =
	movq	-112(%rbp), %rax	# __res, tmp102
	movq	%rax, %rdi	# tmp102,
	call	_ZNKSt10unique_ptrINSt13__future_base12_Result_baseENS1_8_DeleterEEptEv	#
# /opt/rh/devtoolset-7/root/usr/include/c++/7/future:438: 	      make_exception_ptr(future_error(future_errc::broken_promise));
	leaq	8(%rax), %rdx	#, _2
# /opt/rh/devtoolset-7/root/usr/include/c++/7/future:437: 	    __res->_M_error =
	leaq	-88(%rbp), %rax	#, tmp103
	movq	%rax, %rsi	# tmp103,
	movq	%rdx, %rdi	# _2,
	call	_ZNSt15__exception_ptr13exception_ptraSEOS0_	#
# /opt/rh/devtoolset-7/root/usr/include/c++/7/future:438: 	      make_exception_ptr(future_error(future_errc::broken_promise));
	leaq	-88(%rbp), %rax	#, tmp104
	movq	%rax, %rdi	# tmp104,
	call	_ZNSt15__exception_ptr13exception_ptrD1Ev	#
	leaq	-80(%rbp), %rax	#, tmp105
	movq	%rax, %rdi	# tmp105,
	call	_ZNSt12future_errorD1Ev	#
# /opt/rh/devtoolset-7/root/usr/include/c++/7/future:443: 	    _M_result.swap(__res);
	movq	-104(%rbp), %rax	# this, tmp106
	leaq	8(%rax), %rdx	#, _3
	movq	-112(%rbp), %rax	# __res, tmp107
	movq	%rax, %rsi	# tmp107,
	movq	%rdx, %rdi	# _3,
	call	_ZNSt10unique_ptrINSt13__future_base12_Result_baseENS1_8_DeleterEE4swapERS3_	#
# /opt/rh/devtoolset-7/root/usr/include/c++/7/future:445: 	    _M_status._M_store_notify_all(_Status::__ready,
	movq	-104(%rbp), %rax	# this, tmp108
	addq	$16, %rax	#, _4
	movq	%rax, -8(%rbp)	# _4, this
	movl	$1, -12(%rbp)	#, __val
	movl	$3, -16(%rbp)	#, __mo
# /opt/rh/devtoolset-7/root/usr/include/c++/7/bits/atomic_futex.h:206:       unsigned* __futex = (unsigned *)(void *)&_M_data;
	movq	-8(%rbp), %rax	# this, tmp109
	movq	%rax, -24(%rbp)	# tmp109, __futex
# /opt/rh/devtoolset-7/root/usr/include/c++/7/bits/atomic_futex.h:207:       if (_M_data.exchange(__val, __mo) & _Waiter_bit)
	movq	-8(%rbp), %rax	# this, _24
	movq	%rax, -32(%rbp)	# _24, this
	movl	-12(%rbp), %eax	# __val, tmp110
	movl	%eax, -36(%rbp)	# tmp110, __i
	movl	-16(%rbp), %eax	# __mo, tmp111
	movl	%eax, -40(%rbp)	# tmp111, __m
# /opt/rh/devtoolset-7/root/usr/include/c++/7/bits/atomic_base.h:413: 	return __atomic_exchange_n(&_M_i, __i, __m);
	movq	-32(%rbp), %rax	# this, _29
	movl	-36(%rbp), %edx	# __i, tmp112
	xchgl	(%rax), %edx	#,* _29, _30
# /opt/rh/devtoolset-7/root/usr/include/c++/7/bits/atomic_futex.h:207:       if (_M_data.exchange(__val, __mo) & _Waiter_bit)
	movl	%edx, %eax	# _30, _33
	shrl	$31, %eax	#, tmp113
	testb	%al, %al	# retval.249_34
	je	.L160	#,
# /opt/rh/devtoolset-7/root/usr/include/c++/7/bits/atomic_futex.h:208: 	_M_futex_notify_all(__futex);
	movq	-24(%rbp), %rax	# __futex, tmp114
	movq	%rax, %rdi	# tmp114,
	call	_ZNSt28__atomic_futex_unsigned_base19_M_futex_notify_allEPj	#
.L160:
# /opt/rh/devtoolset-7/root/usr/include/c++/7/future:448:       }
	nop
	leave
	.cfi_def_cfa 7, 8
	ret
	.cfi_endproc
.LFE6135:
	.size	_ZNSt13__future_base13_State_baseV216_M_break_promiseESt10unique_ptrINS_12_Result_baseENS2_8_DeleterEE, .-_ZNSt13__future_base13_State_baseV216_M_break_promiseESt10unique_ptrINS_12_Result_baseENS2_8_DeleterEE
	.section	.text._ZNSt13__future_base13_State_baseV221_M_set_retrieved_flagEv,"axG",@progbits,_ZNSt13__future_base13_State_baseV221_M_set_retrieved_flagEv,comdat
	.align 2
	.weak	_ZNSt13__future_base13_State_baseV221_M_set_retrieved_flagEv
	.type	_ZNSt13__future_base13_State_baseV221_M_set_retrieved_flagEv, @function
_ZNSt13__future_base13_State_baseV221_M_set_retrieved_flagEv:
.LFB6142:
	.cfi_startproc
	pushq	%rbp	#
	.cfi_def_cfa_offset 16
	.cfi_offset 6, -16
	movq	%rsp, %rbp	#,
	.cfi_def_cfa_register 6
	subq	$32, %rsp	#,
	movq	%rdi, -24(%rbp)	# this, this
# /opt/rh/devtoolset-7/root/usr/include/c++/7/future:454: 	if (_M_retrieved.test_and_set())
	movq	-24(%rbp), %rax	# this, tmp91
	addq	$20, %rax	#, _1
	movq	%rax, -8(%rbp)	# _1, this
	movl	$5, -12(%rbp)	#, __m
# /opt/rh/devtoolset-7/root/usr/include/c++/7/bits/atomic_base.h:176:       return __atomic_test_and_set (&_M_i, __m);
	movq	-8(%rbp), %rdx	# this, _9
	movl	$1, %eax	#, tmp92
	xchgb	(%rdx), %al	#,* _9, D.261555
# /opt/rh/devtoolset-7/root/usr/include/c++/7/future:454: 	if (_M_retrieved.test_and_set())
	testb	%al, %al	# D.261555
	je	.L164	#,
# /opt/rh/devtoolset-7/root/usr/include/c++/7/future:455: 	  __throw_future_error(int(future_errc::future_already_retrieved));
	movl	$1, %edi	#,
	call	_ZSt20__throw_future_errori	#
.L164:
# /opt/rh/devtoolset-7/root/usr/include/c++/7/future:456:       }
	nop
	leave
	.cfi_def_cfa 7, 8
	ret
	.cfi_endproc
.LFE6142:
	.size	_ZNSt13__future_base13_State_baseV221_M_set_retrieved_flagEv, .-_ZNSt13__future_base13_State_baseV221_M_set_retrieved_flagEv
	.section	.text._ZNSt13__future_base13_State_baseV29_M_do_setEPSt8functionIFSt10unique_ptrINS_12_Result_baseENS3_8_DeleterEEvEEPb,"axG",@progbits,_ZNSt13__future_base13_State_baseV29_M_do_setEPSt8functionIFSt10unique_ptrINS_12_Result_baseENS3_8_DeleterEEvEEPb,comdat
	.align 2
	.weak	_ZNSt13__future_base13_State_baseV29_M_do_setEPSt8functionIFSt10unique_ptrINS_12_Result_baseENS3_8_DeleterEEvEEPb
	.type	_ZNSt13__future_base13_State_baseV29_M_do_setEPSt8functionIFSt10unique_ptrINS_12_Result_baseENS3_8_DeleterEEvEEPb, @function
_ZNSt13__future_base13_State_baseV29_M_do_setEPSt8functionIFSt10unique_ptrINS_12_Result_baseENS3_8_DeleterEEvEEPb:
.LFB6151:
	.cfi_startproc
	pushq	%rbp	#
	.cfi_def_cfa_offset 16
	.cfi_offset 6, -16
	movq	%rsp, %rbp	#,
	.cfi_def_cfa_register 6
	subq	$48, %rsp	#,
	movq	%rdi, -24(%rbp)	# this, this
	movq	%rsi, -32(%rbp)	# __f, __f
	movq	%rdx, -40(%rbp)	# __did_set, __did_set
# /opt/rh/devtoolset-7/root/usr/include/c++/7/future:561:         _Ptr_type __res = (*__f)();
	leaq	-8(%rbp), %rax	#, tmp88
	movq	-32(%rbp), %rdx	# __f, tmp89
	movq	%rdx, %rsi	# tmp89,
	movq	%rax, %rdi	# tmp88,
	call	_ZNKSt8functionIFSt10unique_ptrINSt13__future_base12_Result_baseENS2_8_DeleterEEvEEclEv	#
# /opt/rh/devtoolset-7/root/usr/include/c++/7/future:565: 	*__did_set = true;
	movq	-40(%rbp), %rax	# __did_set, tmp90
	movb	$1, (%rax)	#, *__did_set_5(D)
# /opt/rh/devtoolset-7/root/usr/include/c++/7/future:566:         _M_result.swap(__res); // nothrow
	movq	-24(%rbp), %rax	# this, tmp91
	leaq	8(%rax), %rdx	#, _1
	leaq	-8(%rbp), %rax	#, tmp92
	movq	%rax, %rsi	# tmp92,
	movq	%rdx, %rdi	# _1,
	call	_ZNSt10unique_ptrINSt13__future_base12_Result_baseENS1_8_DeleterEE4swapERS3_	#
# /opt/rh/devtoolset-7/root/usr/include/c++/7/future:561:         _Ptr_type __res = (*__f)();
	leaq	-8(%rbp), %rax	#, tmp93
	movq	%rax, %rdi	# tmp93,
	call	_ZNSt10unique_ptrINSt13__future_base12_Result_baseENS1_8_DeleterEED1Ev	#
# /opt/rh/devtoolset-7/root/usr/include/c++/7/future:567:       }
	nop
	leave
	.cfi_def_cfa 7, 8
	ret
	.cfi_endproc
.LFE6151:
	.size	_ZNSt13__future_base13_State_baseV29_M_do_setEPSt8functionIFSt10unique_ptrINS_12_Result_baseENS3_8_DeleterEEvEEPb, .-_ZNSt13__future_base13_State_baseV29_M_do_setEPSt8functionIFSt10unique_ptrINS_12_Result_baseENS3_8_DeleterEEvEEPb
	.section	.text._ZNSt13__future_base13_State_baseV217_M_complete_asyncEv,"axG",@progbits,_ZNSt13__future_base13_State_baseV217_M_complete_asyncEv,comdat
	.align 2
	.weak	_ZNSt13__future_base13_State_baseV217_M_complete_asyncEv
	.type	_ZNSt13__future_base13_State_baseV217_M_complete_asyncEv, @function
_ZNSt13__future_base13_State_baseV217_M_complete_asyncEv:
.LFB6152:
	.cfi_startproc
	pushq	%rbp	#
	.cfi_def_cfa_offset 16
	.cfi_offset 6, -16
	movq	%rsp, %rbp	#,
	.cfi_def_cfa_register 6
	movq	%rdi, -8(%rbp)	# this, this
# /opt/rh/devtoolset-7/root/usr/include/c++/7/future:570:       virtual void _M_complete_async() { }
	nop
	popq	%rbp	#
	.cfi_def_cfa 7, 8
	ret
	.cfi_endproc
.LFE6152:
	.size	_ZNSt13__future_base13_State_baseV217_M_complete_asyncEv, .-_ZNSt13__future_base13_State_baseV217_M_complete_asyncEv
	.section	.text._ZNKSt13__future_base13_State_baseV221_M_is_deferred_futureEv,"axG",@progbits,_ZNKSt13__future_base13_State_baseV221_M_is_deferred_futureEv,comdat
	.align 2
	.weak	_ZNKSt13__future_base13_State_baseV221_M_is_deferred_futureEv
	.type	_ZNKSt13__future_base13_State_baseV221_M_is_deferred_futureEv, @function
_ZNKSt13__future_base13_State_baseV221_M_is_deferred_futureEv:
.LFB6153:
	.cfi_startproc
	pushq	%rbp	#
	.cfi_def_cfa_offset 16
	.cfi_offset 6, -16
	movq	%rsp, %rbp	#,
	.cfi_def_cfa_register 6
	movq	%rdi, -8(%rbp)	# this, this
# /opt/rh/devtoolset-7/root/usr/include/c++/7/future:573:       virtual bool _M_is_deferred_future() const { return false; }
	movl	$0, %eax	#, _1
	popq	%rbp	#
	.cfi_def_cfa 7, 8
	ret
	.cfi_endproc
.LFE6153:
	.size	_ZNKSt13__future_base13_State_baseV221_M_is_deferred_futureEv, .-_ZNKSt13__future_base13_State_baseV221_M_is_deferred_futureEv
	.section	.text._ZNSt12__shared_ptrINSt13__future_base13_State_baseV2ELN9__gnu_cxx12_Lock_policyE2EED2Ev,"axG",@progbits,_ZNSt12__shared_ptrINSt13__future_base13_State_baseV2ELN9__gnu_cxx12_Lock_policyE2EED5Ev,comdat
	.align 2
	.weak	_ZNSt12__shared_ptrINSt13__future_base13_State_baseV2ELN9__gnu_cxx12_Lock_policyE2EED2Ev
	.type	_ZNSt12__shared_ptrINSt13__future_base13_State_baseV2ELN9__gnu_cxx12_Lock_policyE2EED2Ev, @function
_ZNSt12__shared_ptrINSt13__future_base13_State_baseV2ELN9__gnu_cxx12_Lock_policyE2EED2Ev:
.LFB6184:
	.cfi_startproc
	pushq	%rbp	#
	.cfi_def_cfa_offset 16
	.cfi_offset 6, -16
	movq	%rsp, %rbp	#,
	.cfi_def_cfa_register 6
	subq	$16, %rsp	#,
	movq	%rdi, -8(%rbp)	# this, this
# /opt/rh/devtoolset-7/root/usr/include/c++/7/bits/shared_ptr_base.h:1123:       ~__shared_ptr() = default;
	movq	-8(%rbp), %rax	# this, tmp88
	addq	$8, %rax	#, _1
	movq	%rax, %rdi	# _1,
	call	_ZNSt14__shared_countILN9__gnu_cxx12_Lock_policyE2EED1Ev	#
	nop
	leave
	.cfi_def_cfa 7, 8
	ret
	.cfi_endproc
.LFE6184:
	.size	_ZNSt12__shared_ptrINSt13__future_base13_State_baseV2ELN9__gnu_cxx12_Lock_policyE2EED2Ev, .-_ZNSt12__shared_ptrINSt13__future_base13_State_baseV2ELN9__gnu_cxx12_Lock_policyE2EED2Ev
	.weak	_ZNSt12__shared_ptrINSt13__future_base13_State_baseV2ELN9__gnu_cxx12_Lock_policyE2EED1Ev
	.set	_ZNSt12__shared_ptrINSt13__future_base13_State_baseV2ELN9__gnu_cxx12_Lock_policyE2EED1Ev,_ZNSt12__shared_ptrINSt13__future_base13_State_baseV2ELN9__gnu_cxx12_Lock_policyE2EED2Ev
	.section	.text._ZNSt10shared_ptrINSt13__future_base13_State_baseV2EED2Ev,"axG",@progbits,_ZNSt10shared_ptrINSt13__future_base13_State_baseV2EED5Ev,comdat
	.align 2
	.weak	_ZNSt10shared_ptrINSt13__future_base13_State_baseV2EED2Ev
	.type	_ZNSt10shared_ptrINSt13__future_base13_State_baseV2EED2Ev, @function
_ZNSt10shared_ptrINSt13__future_base13_State_baseV2EED2Ev:
.LFB6186:
	.cfi_startproc
	pushq	%rbp	#
	.cfi_def_cfa_offset 16
	.cfi_offset 6, -16
	movq	%rsp, %rbp	#,
	.cfi_def_cfa_register 6
	subq	$16, %rsp	#,
	movq	%rdi, -8(%rbp)	# this, this
# /opt/rh/devtoolset-7/root/usr/include/c++/7/bits/shared_ptr.h:93:     class shared_ptr : public __shared_ptr<_Tp>
	movq	-8(%rbp), %rax	# this, _1
	movq	%rax, %rdi	# _1,
	call	_ZNSt12__shared_ptrINSt13__future_base13_State_baseV2ELN9__gnu_cxx12_Lock_policyE2EED2Ev	#
	nop
	leave
	.cfi_def_cfa 7, 8
	ret
	.cfi_endproc
.LFE6186:
	.size	_ZNSt10shared_ptrINSt13__future_base13_State_baseV2EED2Ev, .-_ZNSt10shared_ptrINSt13__future_base13_State_baseV2EED2Ev
	.weak	_ZNSt10shared_ptrINSt13__future_base13_State_baseV2EED1Ev
	.set	_ZNSt10shared_ptrINSt13__future_base13_State_baseV2EED1Ev,_ZNSt10shared_ptrINSt13__future_base13_State_baseV2EED2Ev
	.section	.text._ZNSt8functionIFSt10unique_ptrINSt13__future_base12_Result_baseENS2_8_DeleterEEvEED2Ev,"axG",@progbits,_ZNSt8functionIFSt10unique_ptrINSt13__future_base12_Result_baseENS2_8_DeleterEEvEED5Ev,comdat
	.align 2
	.weak	_ZNSt8functionIFSt10unique_ptrINSt13__future_base12_Result_baseENS2_8_DeleterEEvEED2Ev
	.type	_ZNSt8functionIFSt10unique_ptrINSt13__future_base12_Result_baseENS2_8_DeleterEEvEED2Ev, @function
_ZNSt8functionIFSt10unique_ptrINSt13__future_base12_Result_baseENS2_8_DeleterEEvEED2Ev:
.LFB6287:
	.cfi_startproc
	pushq	%rbp	#
	.cfi_def_cfa_offset 16
	.cfi_offset 6, -16
	movq	%rsp, %rbp	#,
	.cfi_def_cfa_register 6
	subq	$16, %rsp	#,
	movq	%rdi, -8(%rbp)	# this, this
# /opt/rh/devtoolset-7/root/usr/include/c++/7/bits/std_function.h:389:     class function<_Res(_ArgTypes...)>
	movq	-8(%rbp), %rax	# this, _1
	movq	%rax, %rdi	# _1,
	call	_ZNSt14_Function_baseD2Ev	#
	nop
	leave
	.cfi_def_cfa 7, 8
	ret
	.cfi_endproc
.LFE6287:
	.size	_ZNSt8functionIFSt10unique_ptrINSt13__future_base12_Result_baseENS2_8_DeleterEEvEED2Ev, .-_ZNSt8functionIFSt10unique_ptrINSt13__future_base12_Result_baseENS2_8_DeleterEEvEED2Ev
	.weak	_ZNSt8functionIFSt10unique_ptrINSt13__future_base12_Result_baseENS2_8_DeleterEEvEED1Ev
	.set	_ZNSt8functionIFSt10unique_ptrINSt13__future_base12_Result_baseENS2_8_DeleterEEvEED1Ev,_ZNSt8functionIFSt10unique_ptrINSt13__future_base12_Result_baseENS2_8_DeleterEEvEED2Ev
	.section	.rodata
	.align 4
	.type	_ZNSt15regex_constantsL5icaseE, @object
	.size	_ZNSt15regex_constantsL5icaseE, 4
_ZNSt15regex_constantsL5icaseE:
	.long	1
	.align 4
	.type	_ZNSt15regex_constantsL6nosubsE, @object
	.size	_ZNSt15regex_constantsL6nosubsE, 4
_ZNSt15regex_constantsL6nosubsE:
	.long	2
	.align 4
	.type	_ZNSt15regex_constantsL8optimizeE, @object
	.size	_ZNSt15regex_constantsL8optimizeE, 4
_ZNSt15regex_constantsL8optimizeE:
	.long	4
	.align 4
	.type	_ZNSt15regex_constantsL7collateE, @object
	.size	_ZNSt15regex_constantsL7collateE, 4
_ZNSt15regex_constantsL7collateE:
	.long	8
	.align 4
	.type	_ZNSt15regex_constantsL10ECMAScriptE, @object
	.size	_ZNSt15regex_constantsL10ECMAScriptE, 4
_ZNSt15regex_constantsL10ECMAScriptE:
	.long	16
	.align 4
	.type	_ZNSt15regex_constantsL5basicE, @object
	.size	_ZNSt15regex_constantsL5basicE, 4
_ZNSt15regex_constantsL5basicE:
	.long	32
	.align 4
	.type	_ZNSt15regex_constantsL8extendedE, @object
	.size	_ZNSt15regex_constantsL8extendedE, 4
_ZNSt15regex_constantsL8extendedE:
	.long	64
	.align 4
	.type	_ZNSt15regex_constantsL3awkE, @object
	.size	_ZNSt15regex_constantsL3awkE, 4
_ZNSt15regex_constantsL3awkE:
	.long	128
	.align 4
	.type	_ZNSt15regex_constantsL4grepE, @object
	.size	_ZNSt15regex_constantsL4grepE, 4
_ZNSt15regex_constantsL4grepE:
	.long	256
	.align 4
	.type	_ZNSt15regex_constantsL5egrepE, @object
	.size	_ZNSt15regex_constantsL5egrepE, 4
_ZNSt15regex_constantsL5egrepE:
	.long	512
	.align 4
	.type	_ZNSt15regex_constantsL12__polynomialE, @object
	.size	_ZNSt15regex_constantsL12__polynomialE, 4
_ZNSt15regex_constantsL12__polynomialE:
	.long	1024
	.align 4
	.type	_ZNSt15regex_constantsL13match_defaultE, @object
	.size	_ZNSt15regex_constantsL13match_defaultE, 4
_ZNSt15regex_constantsL13match_defaultE:
	.zero	4
	.align 4
	.type	_ZNSt15regex_constantsL13match_not_bolE, @object
	.size	_ZNSt15regex_constantsL13match_not_bolE, 4
_ZNSt15regex_constantsL13match_not_bolE:
	.long	1
	.align 4
	.type	_ZNSt15regex_constantsL13match_not_eolE, @object
	.size	_ZNSt15regex_constantsL13match_not_eolE, 4
_ZNSt15regex_constantsL13match_not_eolE:
	.long	2
	.align 4
	.type	_ZNSt15regex_constantsL13match_not_bowE, @object
	.size	_ZNSt15regex_constantsL13match_not_bowE, 4
_ZNSt15regex_constantsL13match_not_bowE:
	.long	4
	.align 4
	.type	_ZNSt15regex_constantsL13match_not_eowE, @object
	.size	_ZNSt15regex_constantsL13match_not_eowE, 4
_ZNSt15regex_constantsL13match_not_eowE:
	.long	8
	.align 4
	.type	_ZNSt15regex_constantsL9match_anyE, @object
	.size	_ZNSt15regex_constantsL9match_anyE, 4
_ZNSt15regex_constantsL9match_anyE:
	.long	16
	.align 4
	.type	_ZNSt15regex_constantsL14match_not_nullE, @object
	.size	_ZNSt15regex_constantsL14match_not_nullE, 4
_ZNSt15regex_constantsL14match_not_nullE:
	.long	32
	.align 4
	.type	_ZNSt15regex_constantsL16match_continuousE, @object
	.size	_ZNSt15regex_constantsL16match_continuousE, 4
_ZNSt15regex_constantsL16match_continuousE:
	.long	64
	.align 4
	.type	_ZNSt15regex_constantsL16match_prev_availE, @object
	.size	_ZNSt15regex_constantsL16match_prev_availE, 4
_ZNSt15regex_constantsL16match_prev_availE:
	.long	128
	.align 4
	.type	_ZNSt15regex_constantsL14format_defaultE, @object
	.size	_ZNSt15regex_constantsL14format_defaultE, 4
_ZNSt15regex_constantsL14format_defaultE:
	.zero	4
	.align 4
	.type	_ZNSt15regex_constantsL10format_sedE, @object
	.size	_ZNSt15regex_constantsL10format_sedE, 4
_ZNSt15regex_constantsL10format_sedE:
	.long	256
	.align 4
	.type	_ZNSt15regex_constantsL14format_no_copyE, @object
	.size	_ZNSt15regex_constantsL14format_no_copyE, 4
_ZNSt15regex_constantsL14format_no_copyE:
	.long	512
	.align 4
	.type	_ZNSt15regex_constantsL17format_first_onlyE, @object
	.size	_ZNSt15regex_constantsL17format_first_onlyE, 4
_ZNSt15regex_constantsL17format_first_onlyE:
	.long	1024
	.align 4
	.type	_ZNSt15regex_constantsL13error_collateE, @object
	.size	_ZNSt15regex_constantsL13error_collateE, 4
_ZNSt15regex_constantsL13error_collateE:
	.zero	4
	.align 4
	.type	_ZNSt15regex_constantsL11error_ctypeE, @object
	.size	_ZNSt15regex_constantsL11error_ctypeE, 4
_ZNSt15regex_constantsL11error_ctypeE:
	.long	1
	.align 4
	.type	_ZNSt15regex_constantsL12error_escapeE, @object
	.size	_ZNSt15regex_constantsL12error_escapeE, 4
_ZNSt15regex_constantsL12error_escapeE:
	.long	2
	.align 4
	.type	_ZNSt15regex_constantsL13error_backrefE, @object
	.size	_ZNSt15regex_constantsL13error_backrefE, 4
_ZNSt15regex_constantsL13error_backrefE:
	.long	3
	.align 4
	.type	_ZNSt15regex_constantsL11error_brackE, @object
	.size	_ZNSt15regex_constantsL11error_brackE, 4
_ZNSt15regex_constantsL11error_brackE:
	.long	4
	.align 4
	.type	_ZNSt15regex_constantsL11error_parenE, @object
	.size	_ZNSt15regex_constantsL11error_parenE, 4
_ZNSt15regex_constantsL11error_parenE:
	.long	5
	.align 4
	.type	_ZNSt15regex_constantsL11error_braceE, @object
	.size	_ZNSt15regex_constantsL11error_braceE, 4
_ZNSt15regex_constantsL11error_braceE:
	.long	6
	.align 4
	.type	_ZNSt15regex_constantsL14error_badbraceE, @object
	.size	_ZNSt15regex_constantsL14error_badbraceE, 4
_ZNSt15regex_constantsL14error_badbraceE:
	.long	7
	.align 4
	.type	_ZNSt15regex_constantsL11error_rangeE, @object
	.size	_ZNSt15regex_constantsL11error_rangeE, 4
_ZNSt15regex_constantsL11error_rangeE:
	.long	8
	.align 4
	.type	_ZNSt15regex_constantsL11error_spaceE, @object
	.size	_ZNSt15regex_constantsL11error_spaceE, 4
_ZNSt15regex_constantsL11error_spaceE:
	.long	9
	.align 4
	.type	_ZNSt15regex_constantsL15error_badrepeatE, @object
	.size	_ZNSt15regex_constantsL15error_badrepeatE, 4
_ZNSt15regex_constantsL15error_badrepeatE:
	.long	10
	.align 4
	.type	_ZNSt15regex_constantsL16error_complexityE, @object
	.size	_ZNSt15regex_constantsL16error_complexityE, 4
_ZNSt15regex_constantsL16error_complexityE:
	.long	11
	.align 4
	.type	_ZNSt15regex_constantsL11error_stackE, @object
	.size	_ZNSt15regex_constantsL11error_stackE, 4
_ZNSt15regex_constantsL11error_stackE:
	.long	12
	.align 8
	.type	_ZNSt8__detailL19_S_invalid_state_idE, @object
	.size	_ZNSt8__detailL19_S_invalid_state_idE, 8
_ZNSt8__detailL19_S_invalid_state_idE:
	.quad	-1
.LC1:
	.string	"c++11.cpp"
.LC2:
	.string	"static_cast<int>(n) == 0"
.LC3:
	.string	"is_enum<Number>()"
	.text
	.globl	_Z8types_11v
	.type	_Z8types_11v, @function
_Z8types_11v:
.LFB7899:
	.cfi_startproc
	pushq	%rbp	#
	.cfi_def_cfa_offset 16
	.cfi_offset 6, -16
	movq	%rsp, %rbp	#,
	.cfi_def_cfa_register 6
	subq	$16, %rsp	#,
# c++11.cpp:54:     Number n = Number::zero;
	movl	$0, -4(%rbp)	#, n
# c++11.cpp:55:     assert(static_cast<int>(n) == 0);
	cmpl	$0, -4(%rbp)	#, n
	je	.L173	#,
# c++11.cpp:55:     assert(static_cast<int>(n) == 0);
	movl	$_ZZ8types_11vE19__PRETTY_FUNCTION__, %ecx	#,
	movl	$55, %edx	#,
	movl	$.LC1, %esi	#,
	movl	$.LC2, %edi	#,
	call	__assert_fail	#
.L173:
# c++11.cpp:56:     assert(is_enum<Number>());
	leaq	-5(%rbp), %rax	#, tmp88
	movq	%rax, %rdi	# tmp88,
	call	_ZNKSt17integral_constantIbLb1EEcvbEv	#
# c++11.cpp:56:     assert(is_enum<Number>());
	testb	%al, %al	# _1
	jne	.L175	#,
# c++11.cpp:56:     assert(is_enum<Number>());
	movl	$_ZZ8types_11vE19__PRETTY_FUNCTION__, %ecx	#,
	movl	$56, %edx	#,
	movl	$.LC1, %esi	#,
	movl	$.LC3, %edi	#,
	call	__assert_fail	#
.L175:
# c++11.cpp:57: }
	nop
	leave
	.cfi_def_cfa 7, 8
	ret
	.cfi_endproc
.LFE7899:
	.size	_Z8types_11v, .-_Z8types_11v
	.section	.rodata
.LC4:
	.string	"!u1"
.LC5:
	.string	"u1"
.LC6:
	.string	"d == 1"
.LC7:
	.string	"u2.get() == p1"
.LC8:
	.string	"u2"
.LC9:
	.string	"u2.get() == &d"
.LC10:
	.string	"*u2 == 10"
.LC11:
	.string	"u2 == nullptr"
.LC12:
	.string	"!u2"
	.text
	.globl	_Z14unique_pointerv
	.type	_Z14unique_pointerv, @function
_Z14unique_pointerv:
.LFB7900:
	.cfi_startproc
	.cfi_personality 0x3,__gxx_personality_v0
	.cfi_lsda 0x3,.LLSDA7900
	pushq	%rbp	#
	.cfi_def_cfa_offset 16
	.cfi_offset 6, -16
	movq	%rsp, %rbp	#,
	.cfi_def_cfa_register 6
	pushq	%rbx	#
	subq	$40, %rsp	#,
	.cfi_offset 3, -24
# c++11.cpp:63:     int d = 0;
	movl	$0, -28(%rbp)	#, d
# c++11.cpp:64:     unique_ptr<int> u1;
	movq	$0, -40(%rbp)	#, u1._M_t._M_t.D.166610.D.164990._M_head_impl
# c++11.cpp:65:     assert(!u1);
	leaq	-40(%rbp), %rax	#, tmp105
	movq	%rax, %rdi	# tmp105,
	call	_ZNKSt10unique_ptrIiSt14default_deleteIiEEcvbEv	#
	xorl	$1, %eax	#, _2
# c++11.cpp:65:     assert(!u1);
	testb	%al, %al	# _2
	jne	.L177	#,
# c++11.cpp:65:     assert(!u1);
	movl	$_ZZ14unique_pointervE19__PRETTY_FUNCTION__, %ecx	#,
	movl	$65, %edx	#,
	movl	$.LC1, %esi	#,
	movl	$.LC4, %edi	#,
	call	__assert_fail	#
.L177:
# c++11.cpp:66:     u1.reset(&d);
	leaq	-28(%rbp), %rdx	#, tmp106
	leaq	-40(%rbp), %rax	#, tmp107
	movq	%rdx, %rsi	# tmp106,
	movq	%rax, %rdi	# tmp107,
	call	_ZNSt10unique_ptrIiSt14default_deleteIiEE5resetEPi	#
# c++11.cpp:67:     assert(u1);
	leaq	-40(%rbp), %rax	#, tmp108
	movq	%rax, %rdi	# tmp108,
	call	_ZNKSt10unique_ptrIiSt14default_deleteIiEEcvbEv	#
# c++11.cpp:67:     assert(u1);
	testb	%al, %al	# _3
	jne	.L178	#,
# c++11.cpp:67:     assert(u1);
	movl	$_ZZ14unique_pointervE19__PRETTY_FUNCTION__, %ecx	#,
	movl	$67, %edx	#,
	movl	$.LC1, %esi	#,
	movl	$.LC5, %edi	#,
	call	__assert_fail	#
.L178:
# c++11.cpp:68:     *u1 = 1;
	leaq	-40(%rbp), %rax	#, tmp109
	movq	%rax, %rdi	# tmp109,
	call	_ZNKSt10unique_ptrIiSt14default_deleteIiEEdeEv	#
	movl	$1, (%rax)	#, *_4
# c++11.cpp:69:     assert(d == 1);
	movl	-28(%rbp), %eax	# d, d.0_5
# c++11.cpp:69:     assert(d == 1);
	cmpl	$1, %eax	#, d.0_5
	je	.L179	#,
# c++11.cpp:69:     assert(d == 1);
	movl	$_ZZ14unique_pointervE19__PRETTY_FUNCTION__, %ecx	#,
	movl	$69, %edx	#,
	movl	$.LC1, %esi	#,
	movl	$.LC6, %edi	#,
	call	__assert_fail	#
.L179:
# c++11.cpp:71:     unique_ptr<int> u2;
	movq	$0, -48(%rbp)	#, u2._M_t._M_t.D.166610.D.164990._M_head_impl
# c++11.cpp:74:     int* p1 = u1.get();
	leaq	-40(%rbp), %rax	#, tmp110
	movq	%rax, %rdi	# tmp110,
	call	_ZNKSt10unique_ptrIiSt14default_deleteIiEE3getEv	#
	movq	%rax, -24(%rbp)	# tmp111, p1
# c++11.cpp:75:     u2 = move(u1); // [move](https://en.cppreference.com/w/cpp/utility/move)
	leaq	-40(%rbp), %rax	#, tmp112
	movq	%rax, %rdi	# tmp112,
	call	_ZSt4moveIRSt10unique_ptrIiSt14default_deleteIiEEEONSt16remove_referenceIT_E4typeEOS6_	#
	movq	%rax, %rdx	#, _6
	leaq	-48(%rbp), %rax	#, tmp113
	movq	%rdx, %rsi	# _6,
	movq	%rax, %rdi	# tmp113,
	call	_ZNSt10unique_ptrIiSt14default_deleteIiEEaSEOS2_	#
# c++11.cpp:76:     assert(u2.get() == p1);
	leaq	-48(%rbp), %rax	#, tmp114
	movq	%rax, %rdi	# tmp114,
	call	_ZNKSt10unique_ptrIiSt14default_deleteIiEE3getEv	#
# c++11.cpp:76:     assert(u2.get() == p1);
	cmpq	%rax, -24(%rbp)	# _7, p1
	je	.L180	#,
# c++11.cpp:76:     assert(u2.get() == p1);
	movl	$_ZZ14unique_pointervE19__PRETTY_FUNCTION__, %ecx	#,
	movl	$76, %edx	#,
	movl	$.LC1, %esi	#,
	movl	$.LC7, %edi	#,
	call	__assert_fail	#
.L180:
# c++11.cpp:77:     assert(u2);
	leaq	-48(%rbp), %rax	#, tmp115
	movq	%rax, %rdi	# tmp115,
	call	_ZNKSt10unique_ptrIiSt14default_deleteIiEEcvbEv	#
# c++11.cpp:77:     assert(u2);
	testb	%al, %al	# _8
	jne	.L181	#,
# c++11.cpp:77:     assert(u2);
	movl	$_ZZ14unique_pointervE19__PRETTY_FUNCTION__, %ecx	#,
	movl	$77, %edx	#,
	movl	$.LC1, %esi	#,
	movl	$.LC8, %edi	#,
	call	__assert_fail	#
.L181:
# c++11.cpp:78:     assert(!u1);
	leaq	-40(%rbp), %rax	#, tmp116
	movq	%rax, %rdi	# tmp116,
	call	_ZNKSt10unique_ptrIiSt14default_deleteIiEEcvbEv	#
	xorl	$1, %eax	#, _10
# c++11.cpp:78:     assert(!u1);
	testb	%al, %al	# _10
	jne	.L182	#,
# c++11.cpp:78:     assert(!u1);
	movl	$_ZZ14unique_pointervE19__PRETTY_FUNCTION__, %ecx	#,
	movl	$78, %edx	#,
	movl	$.LC1, %esi	#,
	movl	$.LC4, %edi	#,
	call	__assert_fail	#
.L182:
# c++11.cpp:79:     assert(u2.get() == &d);
	leaq	-48(%rbp), %rax	#, tmp117
	movq	%rax, %rdi	# tmp117,
	call	_ZNKSt10unique_ptrIiSt14default_deleteIiEE3getEv	#
	movq	%rax, %rdx	#, _11
# c++11.cpp:79:     assert(u2.get() == &d);
	leaq	-28(%rbp), %rax	#, tmp118
	cmpq	%rax, %rdx	# tmp118, _11
	je	.L183	#,
# c++11.cpp:79:     assert(u2.get() == &d);
	movl	$_ZZ14unique_pointervE19__PRETTY_FUNCTION__, %ecx	#,
	movl	$79, %edx	#,
	movl	$.LC1, %esi	#,
	movl	$.LC9, %edi	#,
	call	__assert_fail	#
.L183:
# c++11.cpp:81:     u2.release();
	leaq	-48(%rbp), %rax	#, tmp119
	movq	%rax, %rdi	# tmp119,
	call	_ZNSt10unique_ptrIiSt14default_deleteIiEE7releaseEv	#
# c++11.cpp:82:     u2.reset(new int(10));
	movl	$4, %edi	#,
.LEHB6:
	call	_Znwm	#
.LEHE6:
	movl	$10, (%rax)	#, MEM[(int *)_44]
	leaq	-48(%rbp), %rdx	#, tmp121
	movq	%rax, %rsi	# _43,
	movq	%rdx, %rdi	# tmp121,
	call	_ZNSt10unique_ptrIiSt14default_deleteIiEE5resetEPi	#
# c++11.cpp:83:     assert(*u2 == 10);
	leaq	-48(%rbp), %rax	#, tmp122
	movq	%rax, %rdi	# tmp122,
	call	_ZNKSt10unique_ptrIiSt14default_deleteIiEEdeEv	#
	movl	(%rax), %eax	# *_12, _13
# c++11.cpp:83:     assert(*u2 == 10);
	cmpl	$10, %eax	#, _13
	je	.L184	#,
# c++11.cpp:83:     assert(*u2 == 10);
	movl	$_ZZ14unique_pointervE19__PRETTY_FUNCTION__, %ecx	#,
	movl	$83, %edx	#,
	movl	$.LC1, %esi	#,
	movl	$.LC10, %edi	#,
	call	__assert_fail	#
.L184:
# c++11.cpp:85:     u2.reset(); // deletes int(10)
	leaq	-48(%rbp), %rax	#, tmp123
	movl	$0, %esi	#,
	movq	%rax, %rdi	# tmp123,
	call	_ZNSt10unique_ptrIiSt14default_deleteIiEE5resetEPi	#
# c++11.cpp:86:     assert(u2 == nullptr); // [nullptr](https://en.cppreference.com/w/cpp/language/nullptr)
	leaq	-48(%rbp), %rax	#, tmp124
	movl	$0, %esi	#,
	movq	%rax, %rdi	# tmp124,
	call	_ZSteqIiSt14default_deleteIiEEbRKSt10unique_ptrIT_T0_EDn	#
# c++11.cpp:86:     assert(u2 == nullptr); // [nullptr](https://en.cppreference.com/w/cpp/language/nullptr)
	testb	%al, %al	# _14
	jne	.L185	#,
# c++11.cpp:86:     assert(u2 == nullptr); // [nullptr](https://en.cppreference.com/w/cpp/language/nullptr)
	movl	$_ZZ14unique_pointervE19__PRETTY_FUNCTION__, %ecx	#,
	movl	$86, %edx	#,
	movl	$.LC1, %esi	#,
	movl	$.LC11, %edi	#,
	call	__assert_fail	#
.L185:
# c++11.cpp:88:     assert(!u2);
	leaq	-48(%rbp), %rax	#, tmp125
	movq	%rax, %rdi	# tmp125,
	call	_ZNKSt10unique_ptrIiSt14default_deleteIiEEcvbEv	#
	xorl	$1, %eax	#, _16
# c++11.cpp:88:     assert(!u2);
	testb	%al, %al	# _16
	jne	.L186	#,
# c++11.cpp:88:     assert(!u2);
	movl	$_ZZ14unique_pointervE19__PRETTY_FUNCTION__, %ecx	#,
	movl	$88, %edx	#,
	movl	$.LC1, %esi	#,
	movl	$.LC12, %edi	#,
	call	__assert_fail	#
.L186:
# c++11.cpp:71:     unique_ptr<int> u2;
	leaq	-48(%rbp), %rax	#, tmp126
	movq	%rax, %rdi	# tmp126,
	call	_ZNSt10unique_ptrIiSt14default_deleteIiEED1Ev	#
# c++11.cpp:64:     unique_ptr<int> u1;
	leaq	-40(%rbp), %rax	#, tmp127
	movq	%rax, %rdi	# tmp127,
	call	_ZNSt10unique_ptrIiSt14default_deleteIiEED1Ev	#
# c++11.cpp:89: }
	jmp	.L189	#
.L188:
	movq	%rax, %rbx	#, tmp130
# c++11.cpp:71:     unique_ptr<int> u2;
	leaq	-48(%rbp), %rax	#, tmp128
	movq	%rax, %rdi	# tmp128,
	call	_ZNSt10unique_ptrIiSt14default_deleteIiEED1Ev	#
# c++11.cpp:64:     unique_ptr<int> u1;
	leaq	-40(%rbp), %rax	#, tmp133
	movq	%rax, %rdi	# tmp133,
	call	_ZNSt10unique_ptrIiSt14default_deleteIiEED1Ev	#
	movq	%rbx, %rax	# tmp129, D.261649
	movq	%rax, %rdi	# D.261649,
.LEHB7:
	call	_Unwind_Resume	#
.LEHE7:
.L189:
# c++11.cpp:89: }
	addq	$40, %rsp	#,
	popq	%rbx	#
	popq	%rbp	#
	.cfi_def_cfa 7, 8
	ret
	.cfi_endproc
.LFE7900:
	.section	.gcc_except_table,"a",@progbits
.LLSDA7900:
	.byte	0xff
	.byte	0xff
	.byte	0x1
	.uleb128 .LLSDACSE7900-.LLSDACSB7900
.LLSDACSB7900:
	.uleb128 .LEHB6-.LFB7900
	.uleb128 .LEHE6-.LEHB6
	.uleb128 .L188-.LFB7900
	.uleb128 0
	.uleb128 .LEHB7-.LFB7900
	.uleb128 .LEHE7-.LEHB7
	.uleb128 0
	.uleb128 0
.LLSDACSE7900:
	.text
	.size	_Z14unique_pointerv, .-_Z14unique_pointerv
	.section	.text._ZNSt12__shared_ptrIiLN9__gnu_cxx12_Lock_policyE2EED2Ev,"axG",@progbits,_ZNSt12__shared_ptrIiLN9__gnu_cxx12_Lock_policyE2EED5Ev,comdat
	.align 2
	.weak	_ZNSt12__shared_ptrIiLN9__gnu_cxx12_Lock_policyE2EED2Ev
	.type	_ZNSt12__shared_ptrIiLN9__gnu_cxx12_Lock_policyE2EED2Ev, @function
_ZNSt12__shared_ptrIiLN9__gnu_cxx12_Lock_policyE2EED2Ev:
.LFB7929:
	.cfi_startproc
	pushq	%rbp	#
	.cfi_def_cfa_offset 16
	.cfi_offset 6, -16
	movq	%rsp, %rbp	#,
	.cfi_def_cfa_register 6
	subq	$16, %rsp	#,
	movq	%rdi, -8(%rbp)	# this, this
# /opt/rh/devtoolset-7/root/usr/include/c++/7/bits/shared_ptr_base.h:1123:       ~__shared_ptr() = default;
	movq	-8(%rbp), %rax	# this, tmp88
	addq	$8, %rax	#, _1
	movq	%rax, %rdi	# _1,
	call	_ZNSt14__shared_countILN9__gnu_cxx12_Lock_policyE2EED1Ev	#
	nop
	leave
	.cfi_def_cfa 7, 8
	ret
	.cfi_endproc
.LFE7929:
	.size	_ZNSt12__shared_ptrIiLN9__gnu_cxx12_Lock_policyE2EED2Ev, .-_ZNSt12__shared_ptrIiLN9__gnu_cxx12_Lock_policyE2EED2Ev
	.weak	_ZNSt12__shared_ptrIiLN9__gnu_cxx12_Lock_policyE2EED1Ev
	.set	_ZNSt12__shared_ptrIiLN9__gnu_cxx12_Lock_policyE2EED1Ev,_ZNSt12__shared_ptrIiLN9__gnu_cxx12_Lock_policyE2EED2Ev
	.section	.text._ZNSt10shared_ptrIiEC1Ev,"axG",@progbits,_ZNSt10shared_ptrIiEC1Ev,comdat
	.align 2
	.weak	_ZNSt10shared_ptrIiEC1Ev
	.type	_ZNSt10shared_ptrIiEC1Ev, @function
_ZNSt10shared_ptrIiEC1Ev:
.LFB7932:
	.cfi_startproc
	pushq	%rbp	#
	.cfi_def_cfa_offset 16
	.cfi_offset 6, -16
	movq	%rsp, %rbp	#,
	.cfi_def_cfa_register 6
	subq	$16, %rsp	#,
	movq	%rdi, -8(%rbp)	# this, this
# /opt/rh/devtoolset-7/root/usr/include/c++/7/bits/shared_ptr.h:117:       constexpr shared_ptr() noexcept : __shared_ptr<_Tp>() { }
	movq	-8(%rbp), %rax	# this, _1
	movq	%rax, %rdi	# _1,
	call	_ZNSt12__shared_ptrIiLN9__gnu_cxx12_Lock_policyE2EEC2Ev	#
	nop
	leave
	.cfi_def_cfa 7, 8
	ret
	.cfi_endproc
.LFE7932:
	.size	_ZNSt10shared_ptrIiEC1Ev, .-_ZNSt10shared_ptrIiEC1Ev
	.section	.text._ZNSt12__shared_ptrIiLN9__gnu_cxx12_Lock_policyE2EEC2Ev,"axG",@progbits,_ZNSt12__shared_ptrIiLN9__gnu_cxx12_Lock_policyE2EEC2Ev,comdat
	.align 2
	.weak	_ZNSt12__shared_ptrIiLN9__gnu_cxx12_Lock_policyE2EEC2Ev
	.type	_ZNSt12__shared_ptrIiLN9__gnu_cxx12_Lock_policyE2EEC2Ev, @function
_ZNSt12__shared_ptrIiLN9__gnu_cxx12_Lock_policyE2EEC2Ev:
.LFB7934:
	.cfi_startproc
	pushq	%rbp	#
	.cfi_def_cfa_offset 16
	.cfi_offset 6, -16
	movq	%rsp, %rbp	#,
	.cfi_def_cfa_register 6
	subq	$16, %rsp	#,
	movq	%rdi, -8(%rbp)	# this, this
# /opt/rh/devtoolset-7/root/usr/include/c++/7/bits/shared_ptr_base.h:1073:       : _M_ptr(0), _M_refcount()
	movq	-8(%rbp), %rax	# this, tmp89
	movq	$0, (%rax)	#, this_4(D)->_M_ptr
	movq	-8(%rbp), %rax	# this, tmp90
	addq	$8, %rax	#, _1
	movq	%rax, %rdi	# _1,
	call	_ZNSt14__shared_countILN9__gnu_cxx12_Lock_policyE2EEC1Ev	#
# /opt/rh/devtoolset-7/root/usr/include/c++/7/bits/shared_ptr_base.h:1074:       { }
	nop
	leave
	.cfi_def_cfa 7, 8
	ret
	.cfi_endproc
.LFE7934:
	.size	_ZNSt12__shared_ptrIiLN9__gnu_cxx12_Lock_policyE2EEC2Ev, .-_ZNSt12__shared_ptrIiLN9__gnu_cxx12_Lock_policyE2EEC2Ev
	.section	.text._ZNSt14__shared_countILN9__gnu_cxx12_Lock_policyE2EEC1Ev,"axG",@progbits,_ZNSt14__shared_countILN9__gnu_cxx12_Lock_policyE2EEC1Ev,comdat
	.align 2
	.weak	_ZNSt14__shared_countILN9__gnu_cxx12_Lock_policyE2EEC1Ev
	.type	_ZNSt14__shared_countILN9__gnu_cxx12_Lock_policyE2EEC1Ev, @function
_ZNSt14__shared_countILN9__gnu_cxx12_Lock_policyE2EEC1Ev:
.LFB7938:
	.cfi_startproc
	pushq	%rbp	#
	.cfi_def_cfa_offset 16
	.cfi_offset 6, -16
	movq	%rsp, %rbp	#,
	.cfi_def_cfa_register 6
	movq	%rdi, -8(%rbp)	# this, this
# /opt/rh/devtoolset-7/root/usr/include/c++/7/bits/shared_ptr_base.h:575:       constexpr __shared_count() noexcept : _M_pi(0)
	movq	-8(%rbp), %rax	# this, tmp87
	movq	$0, (%rax)	#, this_2(D)->_M_pi
# /opt/rh/devtoolset-7/root/usr/include/c++/7/bits/shared_ptr_base.h:576:       { }
	nop
	popq	%rbp	#
	.cfi_def_cfa 7, 8
	ret
	.cfi_endproc
.LFE7938:
	.size	_ZNSt14__shared_countILN9__gnu_cxx12_Lock_policyE2EEC1Ev, .-_ZNSt14__shared_countILN9__gnu_cxx12_Lock_policyE2EEC1Ev
	.section	.text._ZNSt10shared_ptrIiED2Ev,"axG",@progbits,_ZNSt10shared_ptrIiED5Ev,comdat
	.align 2
	.weak	_ZNSt10shared_ptrIiED2Ev
	.type	_ZNSt10shared_ptrIiED2Ev, @function
_ZNSt10shared_ptrIiED2Ev:
.LFB7940:
	.cfi_startproc
	pushq	%rbp	#
	.cfi_def_cfa_offset 16
	.cfi_offset 6, -16
	movq	%rsp, %rbp	#,
	.cfi_def_cfa_register 6
	subq	$16, %rsp	#,
	movq	%rdi, -8(%rbp)	# this, this
# /opt/rh/devtoolset-7/root/usr/include/c++/7/bits/shared_ptr.h:93:     class shared_ptr : public __shared_ptr<_Tp>
	movq	-8(%rbp), %rax	# this, _1
	movq	%rax, %rdi	# _1,
	call	_ZNSt12__shared_ptrIiLN9__gnu_cxx12_Lock_policyE2EED2Ev	#
	nop
	leave
	.cfi_def_cfa 7, 8
	ret
	.cfi_endproc
.LFE7940:
	.size	_ZNSt10shared_ptrIiED2Ev, .-_ZNSt10shared_ptrIiED2Ev
	.weak	_ZNSt10shared_ptrIiED1Ev
	.set	_ZNSt10shared_ptrIiED1Ev,_ZNSt10shared_ptrIiED2Ev
	.section	.text._ZNSt12__shared_ptrIiLN9__gnu_cxx12_Lock_policyE2EEaSERKS2_,"axG",@progbits,_ZNSt12__shared_ptrIiLN9__gnu_cxx12_Lock_policyE2EEaSERKS2_,comdat
	.align 2
	.weak	_ZNSt12__shared_ptrIiLN9__gnu_cxx12_Lock_policyE2EEaSERKS2_
	.type	_ZNSt12__shared_ptrIiLN9__gnu_cxx12_Lock_policyE2EEaSERKS2_, @function
_ZNSt12__shared_ptrIiLN9__gnu_cxx12_Lock_policyE2EEaSERKS2_:
.LFB7943:
	.cfi_startproc
	pushq	%rbp	#
	.cfi_def_cfa_offset 16
	.cfi_offset 6, -16
	movq	%rsp, %rbp	#,
	.cfi_def_cfa_register 6
	subq	$16, %rsp	#,
	movq	%rdi, -8(%rbp)	# this, this
	movq	%rsi, -16(%rbp)	# D.168322, D.168322
# /opt/rh/devtoolset-7/root/usr/include/c++/7/bits/shared_ptr_base.h:1034:     class __shared_ptr
	movq	-16(%rbp), %rax	# D.168322, tmp92
	movq	(%rax), %rdx	# _5(D)->_M_ptr, _1
	movq	-8(%rbp), %rax	# this, tmp93
	movq	%rdx, (%rax)	# _1, this_6(D)->_M_ptr
	movq	-16(%rbp), %rax	# D.168322, tmp94
	leaq	8(%rax), %rdx	#, _2
	movq	-8(%rbp), %rax	# this, tmp95
	addq	$8, %rax	#, _3
	movq	%rdx, %rsi	# _2,
	movq	%rax, %rdi	# _3,
	call	_ZNSt14__shared_countILN9__gnu_cxx12_Lock_policyE2EEaSERKS2_	#
	movq	-8(%rbp), %rax	# this, _9
	leave
	.cfi_def_cfa 7, 8
	ret
	.cfi_endproc
.LFE7943:
	.size	_ZNSt12__shared_ptrIiLN9__gnu_cxx12_Lock_policyE2EEaSERKS2_, .-_ZNSt12__shared_ptrIiLN9__gnu_cxx12_Lock_policyE2EEaSERKS2_
	.section	.text._ZNSt10shared_ptrIiEaSERKS0_,"axG",@progbits,_ZNSt10shared_ptrIiEaSERKS0_,comdat
	.align 2
	.weak	_ZNSt10shared_ptrIiEaSERKS0_
	.type	_ZNSt10shared_ptrIiEaSERKS0_, @function
_ZNSt10shared_ptrIiEaSERKS0_:
.LFB7942:
	.cfi_startproc
	pushq	%rbp	#
	.cfi_def_cfa_offset 16
	.cfi_offset 6, -16
	movq	%rsp, %rbp	#,
	.cfi_def_cfa_register 6
	subq	$16, %rsp	#,
	movq	%rdi, -8(%rbp)	# this, this
	movq	%rsi, -16(%rbp)	# D.169311, D.169311
# /opt/rh/devtoolset-7/root/usr/include/c++/7/bits/shared_ptr.h:93:     class shared_ptr : public __shared_ptr<_Tp>
	movq	-8(%rbp), %rax	# this, _1
	movq	-16(%rbp), %rdx	# D.169311, _2
	movq	%rdx, %rsi	# _2,
	movq	%rax, %rdi	# _1,
	call	_ZNSt12__shared_ptrIiLN9__gnu_cxx12_Lock_policyE2EEaSERKS2_	#
	movq	-8(%rbp), %rax	# this, _7
	leave
	.cfi_def_cfa 7, 8
	ret
	.cfi_endproc
.LFE7942:
	.size	_ZNSt10shared_ptrIiEaSERKS0_, .-_ZNSt10shared_ptrIiEaSERKS0_
	.section	.rodata
.LC13:
	.string	"!s1"
.LC14:
	.string	"!s1.use_count()"
.LC15:
	.string	"s2.use_count() == 1"
.LC16:
	.string	"s1.use_count() == 2"
.LC17:
	.string	"*s1 == *s1.get()"
.LC18:
	.string	"*s2 == 2"
.LC19:
	.string	"s1.use_count() == 1"
.LC20:
	.string	"!s2.use_count()"
	.text
	.globl	_Z14shared_pointerv
	.type	_Z14shared_pointerv, @function
_Z14shared_pointerv:
.LFB7926:
	.cfi_startproc
	.cfi_personality 0x3,__gxx_personality_v0
	.cfi_lsda 0x3,.LLSDA7926
	pushq	%rbp	#
	.cfi_def_cfa_offset 16
	.cfi_offset 6, -16
	movq	%rsp, %rbp	#,
	.cfi_def_cfa_register 6
	pushq	%rbx	#
	subq	$72, %rsp	#,
	.cfi_offset 3, -24
# c++11.cpp:95:     shared_ptr<int> s1;
	movq	$0, -64(%rbp)	#, s1.D.169605._M_ptr
	movq	$0, -56(%rbp)	#, s1.D.169605._M_refcount._M_pi
# c++11.cpp:96:     assert(!s1);
	leaq	-64(%rbp), %rax	#, tmp102
	movq	%rax, %rdi	# tmp102,
	call	_ZNKSt12__shared_ptrIiLN9__gnu_cxx12_Lock_policyE2EEcvbEv	#
	xorl	$1, %eax	#, _2
# c++11.cpp:96:     assert(!s1);
	testb	%al, %al	# _2
	jne	.L200	#,
# c++11.cpp:96:     assert(!s1);
	movl	$_ZZ14shared_pointervE19__PRETTY_FUNCTION__, %ecx	#,
	movl	$96, %edx	#,
	movl	$.LC1, %esi	#,
	movl	$.LC13, %edi	#,
	call	__assert_fail	#
.L200:
# c++11.cpp:97:     assert(!s1.use_count());
	leaq	-64(%rbp), %rax	#, tmp103
	movq	%rax, %rdi	# tmp103,
	call	_ZNKSt12__shared_ptrIiLN9__gnu_cxx12_Lock_policyE2EE9use_countEv	#
# c++11.cpp:97:     assert(!s1.use_count());
	testq	%rax, %rax	# _3
	je	.L201	#,
# c++11.cpp:97:     assert(!s1.use_count());
	movl	$_ZZ14shared_pointervE19__PRETTY_FUNCTION__, %ecx	#,
	movl	$97, %edx	#,
	movl	$.LC1, %esi	#,
	movl	$.LC14, %edi	#,
	call	__assert_fail	#
.L201:
# c++11.cpp:99:     auto s2 = make_shared<int>(1);
	movl	$1, -36(%rbp)	#, D.169648
	leaq	-80(%rbp), %rax	#, tmp104
	leaq	-36(%rbp), %rdx	#, tmp105
	movq	%rdx, %rsi	# tmp105,
	movq	%rax, %rdi	# tmp104,
.LEHB8:
	call	_ZSt11make_sharedIiJiEESt10shared_ptrIT_EDpOT0_	#
.LEHE8:
# c++11.cpp:100:     assert(s2.use_count() == 1);
	leaq	-80(%rbp), %rax	#, tmp106
	movq	%rax, %rdi	# tmp106,
	call	_ZNKSt12__shared_ptrIiLN9__gnu_cxx12_Lock_policyE2EE9use_countEv	#
# c++11.cpp:100:     assert(s2.use_count() == 1);
	cmpq	$1, %rax	#, _4
	je	.L202	#,
	movl	$_ZZ14shared_pointervE19__PRETTY_FUNCTION__, %ecx	#,
	movl	$100, %edx	#,
	movl	$.LC1, %esi	#,
	movl	$.LC15, %edi	#,
	call	__assert_fail	#
.L202:
# c++11.cpp:102:     s1 = s2;
	leaq	-80(%rbp), %rdx	#, tmp107
	leaq	-64(%rbp), %rax	#, tmp108
	movq	%rdx, %rsi	# tmp107,
	movq	%rax, %rdi	# tmp108,
	call	_ZNSt10shared_ptrIiEaSERKS0_	#
# c++11.cpp:103:     assert(s1.use_count() == 2);
	leaq	-64(%rbp), %rax	#, tmp109
	movq	%rax, %rdi	# tmp109,
	call	_ZNKSt12__shared_ptrIiLN9__gnu_cxx12_Lock_policyE2EE9use_countEv	#
# c++11.cpp:103:     assert(s1.use_count() == 2);
	cmpq	$2, %rax	#, _5
	je	.L203	#,
# c++11.cpp:103:     assert(s1.use_count() == 2);
	movl	$_ZZ14shared_pointervE19__PRETTY_FUNCTION__, %ecx	#,
	movl	$103, %edx	#,
	movl	$.LC1, %esi	#,
	movl	$.LC16, %edi	#,
	call	__assert_fail	#
.L203:
# c++11.cpp:105:     *s1 = 2;
	leaq	-64(%rbp), %rax	#, tmp110
	movq	%rax, %rdi	# tmp110,
	call	_ZNKSt19__shared_ptr_accessIiLN9__gnu_cxx12_Lock_policyE2ELb0ELb0EEdeEv	#
	movl	$2, (%rax)	#, *_6
# c++11.cpp:106:     assert(*s1 == *s1.get());
	leaq	-64(%rbp), %rax	#, tmp111
	movq	%rax, %rdi	# tmp111,
	call	_ZNKSt19__shared_ptr_accessIiLN9__gnu_cxx12_Lock_policyE2ELb0ELb0EEdeEv	#
	movl	(%rax), %ebx	# *_7, _8
	leaq	-64(%rbp), %rax	#, tmp112
	movq	%rax, %rdi	# tmp112,
	call	_ZNKSt12__shared_ptrIiLN9__gnu_cxx12_Lock_policyE2EE3getEv	#
	movl	(%rax), %eax	# *_9, _10
# c++11.cpp:106:     assert(*s1 == *s1.get());
	cmpl	%eax, %ebx	# _10, _8
	je	.L204	#,
# c++11.cpp:106:     assert(*s1 == *s1.get());
	movl	$_ZZ14shared_pointervE19__PRETTY_FUNCTION__, %ecx	#,
	movl	$106, %edx	#,
	movl	$.LC1, %esi	#,
	movl	$.LC17, %edi	#,
	call	__assert_fail	#
.L204:
# c++11.cpp:107:     assert(*s2 == 2);
	leaq	-80(%rbp), %rax	#, tmp113
	movq	%rax, %rdi	# tmp113,
	call	_ZNKSt19__shared_ptr_accessIiLN9__gnu_cxx12_Lock_policyE2ELb0ELb0EEdeEv	#
	movl	(%rax), %eax	# *_11, _12
# c++11.cpp:107:     assert(*s2 == 2);
	cmpl	$2, %eax	#, _12
	je	.L205	#,
# c++11.cpp:107:     assert(*s2 == 2);
	movl	$_ZZ14shared_pointervE19__PRETTY_FUNCTION__, %ecx	#,
	movl	$107, %edx	#,
	movl	$.LC1, %esi	#,
	movl	$.LC18, %edi	#,
	call	__assert_fail	#
.L205:
# c++11.cpp:109:     s2 = nullptr; // like s2.reset();
	leaq	-32(%rbp), %rax	#, tmp114
	movl	$0, %esi	#,
	movq	%rax, %rdi	# tmp114,
	call	_ZNSt10shared_ptrIiEC1EDn	#
	leaq	-32(%rbp), %rdx	#, tmp115
	leaq	-80(%rbp), %rax	#, tmp116
	movq	%rdx, %rsi	# tmp115,
	movq	%rax, %rdi	# tmp116,
	call	_ZNSt10shared_ptrIiEaSEOS0_	#
	leaq	-32(%rbp), %rax	#, tmp117
	movq	%rax, %rdi	# tmp117,
	call	_ZNSt10shared_ptrIiED1Ev	#
# c++11.cpp:110:     assert(s1.use_count() == 1);
	leaq	-64(%rbp), %rax	#, tmp118
	movq	%rax, %rdi	# tmp118,
	call	_ZNKSt12__shared_ptrIiLN9__gnu_cxx12_Lock_policyE2EE9use_countEv	#
# c++11.cpp:110:     assert(s1.use_count() == 1);
	cmpq	$1, %rax	#, _13
	je	.L206	#,
# c++11.cpp:110:     assert(s1.use_count() == 1);
	movl	$_ZZ14shared_pointervE19__PRETTY_FUNCTION__, %ecx	#,
	movl	$110, %edx	#,
	movl	$.LC1, %esi	#,
	movl	$.LC19, %edi	#,
	call	__assert_fail	#
.L206:
# c++11.cpp:111:     assert(!s2.use_count());
	leaq	-80(%rbp), %rax	#, tmp119
	movq	%rax, %rdi	# tmp119,
	call	_ZNKSt12__shared_ptrIiLN9__gnu_cxx12_Lock_policyE2EE9use_countEv	#
# c++11.cpp:111:     assert(!s2.use_count());
	testq	%rax, %rax	# _14
	je	.L207	#,
# c++11.cpp:111:     assert(!s2.use_count());
	movl	$_ZZ14shared_pointervE19__PRETTY_FUNCTION__, %ecx	#,
	movl	$111, %edx	#,
	movl	$.LC1, %esi	#,
	movl	$.LC20, %edi	#,
	call	__assert_fail	#
.L207:
# c++11.cpp:99:     auto s2 = make_shared<int>(1);
	leaq	-80(%rbp), %rax	#, tmp120
	movq	%rax, %rdi	# tmp120,
	call	_ZNSt10shared_ptrIiED1Ev	#
# c++11.cpp:95:     shared_ptr<int> s1;
	leaq	-64(%rbp), %rax	#, tmp121
	movq	%rax, %rdi	# tmp121,
	call	_ZNSt10shared_ptrIiED1Ev	#
# c++11.cpp:112: }
	jmp	.L210	#
.L209:
	movq	%rax, %rbx	#, tmp123
# c++11.cpp:95:     shared_ptr<int> s1;
	leaq	-64(%rbp), %rax	#, tmp122
	movq	%rax, %rdi	# tmp122,
	call	_ZNSt10shared_ptrIiED1Ev	#
	movq	%rbx, %rax	# tmp123, D.261659
	movq	%rax, %rdi	# D.261659,
.LEHB9:
	call	_Unwind_Resume	#
.LEHE9:
.L210:
# c++11.cpp:112: }
	addq	$72, %rsp	#,
	popq	%rbx	#
	popq	%rbp	#
	.cfi_def_cfa 7, 8
	ret
	.cfi_endproc
.LFE7926:
	.section	.gcc_except_table
.LLSDA7926:
	.byte	0xff
	.byte	0xff
	.byte	0x1
	.uleb128 .LLSDACSE7926-.LLSDACSB7926
.LLSDACSB7926:
	.uleb128 .LEHB8-.LFB7926
	.uleb128 .LEHE8-.LEHB8
	.uleb128 .L209-.LFB7926
	.uleb128 0
	.uleb128 .LEHB9-.LFB7926
	.uleb128 .LEHE9-.LEHB9
	.uleb128 0
	.uleb128 0
.LLSDACSE7926:
	.text
	.size	_Z14shared_pointerv, .-_Z14shared_pointerv
	.section	.text._ZNSt10__weak_ptrIiLN9__gnu_cxx12_Lock_policyE2EED2Ev,"axG",@progbits,_ZNSt10__weak_ptrIiLN9__gnu_cxx12_Lock_policyE2EED5Ev,comdat
	.align 2
	.weak	_ZNSt10__weak_ptrIiLN9__gnu_cxx12_Lock_policyE2EED2Ev
	.type	_ZNSt10__weak_ptrIiLN9__gnu_cxx12_Lock_policyE2EED2Ev, @function
_ZNSt10__weak_ptrIiLN9__gnu_cxx12_Lock_policyE2EED2Ev:
.LFB7947:
	.cfi_startproc
	pushq	%rbp	#
	.cfi_def_cfa_offset 16
	.cfi_offset 6, -16
	movq	%rsp, %rbp	#,
	.cfi_def_cfa_register 6
	subq	$16, %rsp	#,
	movq	%rdi, -8(%rbp)	# this, this
# /opt/rh/devtoolset-7/root/usr/include/c++/7/bits/shared_ptr_base.h:1609:       ~__weak_ptr() = default;
	movq	-8(%rbp), %rax	# this, tmp88
	addq	$8, %rax	#, _1
	movq	%rax, %rdi	# _1,
	call	_ZNSt12__weak_countILN9__gnu_cxx12_Lock_policyE2EED1Ev	#
	nop
	leave
	.cfi_def_cfa 7, 8
	ret
	.cfi_endproc
.LFE7947:
	.size	_ZNSt10__weak_ptrIiLN9__gnu_cxx12_Lock_policyE2EED2Ev, .-_ZNSt10__weak_ptrIiLN9__gnu_cxx12_Lock_policyE2EED2Ev
	.weak	_ZNSt10__weak_ptrIiLN9__gnu_cxx12_Lock_policyE2EED1Ev
	.set	_ZNSt10__weak_ptrIiLN9__gnu_cxx12_Lock_policyE2EED1Ev,_ZNSt10__weak_ptrIiLN9__gnu_cxx12_Lock_policyE2EED2Ev
	.section	.text._ZNSt8weak_ptrIiED2Ev,"axG",@progbits,_ZNSt8weak_ptrIiED5Ev,comdat
	.align 2
	.weak	_ZNSt8weak_ptrIiED2Ev
	.type	_ZNSt8weak_ptrIiED2Ev, @function
_ZNSt8weak_ptrIiED2Ev:
.LFB7958:
	.cfi_startproc
	pushq	%rbp	#
	.cfi_def_cfa_offset 16
	.cfi_offset 6, -16
	movq	%rsp, %rbp	#,
	.cfi_def_cfa_register 6
	subq	$16, %rsp	#,
	movq	%rdi, -8(%rbp)	# this, this
# /opt/rh/devtoolset-7/root/usr/include/c++/7/bits/shared_ptr.h:520:     class weak_ptr : public __weak_ptr<_Tp>
	movq	-8(%rbp), %rax	# this, _1
	movq	%rax, %rdi	# _1,
	call	_ZNSt10__weak_ptrIiLN9__gnu_cxx12_Lock_policyE2EED2Ev	#
	nop
	leave
	.cfi_def_cfa 7, 8
	ret
	.cfi_endproc
.LFE7958:
	.size	_ZNSt8weak_ptrIiED2Ev, .-_ZNSt8weak_ptrIiED2Ev
	.weak	_ZNSt8weak_ptrIiED1Ev
	.set	_ZNSt8weak_ptrIiED1Ev,_ZNSt8weak_ptrIiED2Ev
	.section	.rodata
.LC21:
	.string	"!wp.lock()"
.LC22:
	.string	"!wp.use_count()"
.LC23:
	.string	"*wp.lock() == 1"
	.text
	.globl	_Z12weak_pointerv
	.type	_Z12weak_pointerv, @function
_Z12weak_pointerv:
.LFB7944:
	.cfi_startproc
	.cfi_personality 0x3,__gxx_personality_v0
	.cfi_lsda 0x3,.LLSDA7944
	pushq	%rbp	#
	.cfi_def_cfa_offset 16
	.cfi_offset 6, -16
	movq	%rsp, %rbp	#,
	.cfi_def_cfa_register 6
	pushq	%rbx	#
	subq	$88, %rsp	#,
	.cfi_offset 3, -24
# c++11.cpp:118:     weak_ptr<int> wp;
	movq	$0, -80(%rbp)	#, wp.D.170556._M_ptr
	movq	$0, -72(%rbp)	#, wp.D.170556._M_refcount._M_pi
# c++11.cpp:120:     assert(!wp.lock());
	leaq	-64(%rbp), %rax	#, tmp93
	leaq	-80(%rbp), %rdx	#, tmp94
	movq	%rdx, %rsi	# tmp94,
	movq	%rax, %rdi	# tmp93,
	call	_ZNKSt8weak_ptrIiE4lockEv	#
	leaq	-64(%rbp), %rax	#, tmp95
	movq	%rax, %rdi	# tmp95,
	call	_ZNKSt12__shared_ptrIiLN9__gnu_cxx12_Lock_policyE2EEcvbEv	#
	xorl	$1, %eax	#, _2
# c++11.cpp:120:     assert(!wp.lock());
	testb	%al, %al	# _2
	jne	.L214	#,
# c++11.cpp:120:     assert(!wp.lock());
	movl	$_ZZ12weak_pointervE19__PRETTY_FUNCTION__, %ecx	#,
	movl	$120, %edx	#,
	movl	$.LC1, %esi	#,
	movl	$.LC21, %edi	#,
	call	__assert_fail	#
.L214:
# c++11.cpp:120:     assert(!wp.lock());
	leaq	-64(%rbp), %rax	#, tmp96
	movq	%rax, %rdi	# tmp96,
	call	_ZNSt10shared_ptrIiED1Ev	#
# c++11.cpp:121:     assert(!wp.use_count());
	leaq	-80(%rbp), %rax	#, tmp97
	movq	%rax, %rdi	# tmp97,
	call	_ZNKSt10__weak_ptrIiLN9__gnu_cxx12_Lock_policyE2EE9use_countEv	#
# c++11.cpp:121:     assert(!wp.use_count());
	testq	%rax, %rax	# _3
	je	.L215	#,
# c++11.cpp:121:     assert(!wp.use_count());
	movl	$_ZZ12weak_pointervE19__PRETTY_FUNCTION__, %ecx	#,
	movl	$121, %edx	#,
	movl	$.LC1, %esi	#,
	movl	$.LC22, %edi	#,
	call	__assert_fail	#
.L215:
# c++11.cpp:122:     auto sp = make_shared<int>(1);
	movl	$1, -36(%rbp)	#, D.170598
	leaq	-96(%rbp), %rax	#, tmp98
	leaq	-36(%rbp), %rdx	#, tmp99
	movq	%rdx, %rsi	# tmp99,
	movq	%rax, %rdi	# tmp98,
.LEHB10:
	call	_ZSt11make_sharedIiJiEESt10shared_ptrIT_EDpOT0_	#
.LEHE10:
# c++11.cpp:123:     wp = sp;
	leaq	-96(%rbp), %rdx	#, tmp100
	leaq	-80(%rbp), %rax	#, tmp101
	movq	%rdx, %rsi	# tmp100,
	movq	%rax, %rdi	# tmp101,
	call	_ZNSt8weak_ptrIiEaSIiEENSt9enable_ifIXsrSt13is_assignableIRSt10__weak_ptrIiLN9__gnu_cxx12_Lock_policyE2EERKSt10shared_ptrIT_EE5valueERS0_E4typeESD_	#
# c++11.cpp:124:     assert(*wp.lock() == 1);
	leaq	-32(%rbp), %rax	#, tmp102
	leaq	-80(%rbp), %rdx	#, tmp103
	movq	%rdx, %rsi	# tmp103,
	movq	%rax, %rdi	# tmp102,
	call	_ZNKSt8weak_ptrIiE4lockEv	#
	leaq	-32(%rbp), %rax	#, tmp104
	movq	%rax, %rdi	# tmp104,
	call	_ZNKSt19__shared_ptr_accessIiLN9__gnu_cxx12_Lock_policyE2ELb0ELb0EEdeEv	#
	movl	(%rax), %eax	# *_4, _5
# c++11.cpp:124:     assert(*wp.lock() == 1);
	cmpl	$1, %eax	#, _5
	je	.L216	#,
	movl	$_ZZ12weak_pointervE19__PRETTY_FUNCTION__, %ecx	#,
	movl	$124, %edx	#,
	movl	$.LC1, %esi	#,
	movl	$.LC23, %edi	#,
	call	__assert_fail	#
.L216:
# c++11.cpp:124:     assert(*wp.lock() == 1);
	leaq	-32(%rbp), %rax	#, tmp105
	movq	%rax, %rdi	# tmp105,
	call	_ZNSt10shared_ptrIiED1Ev	#
# c++11.cpp:122:     auto sp = make_shared<int>(1);
	leaq	-96(%rbp), %rax	#, tmp106
	movq	%rax, %rdi	# tmp106,
	call	_ZNSt10shared_ptrIiED1Ev	#
# c++11.cpp:118:     weak_ptr<int> wp;
	leaq	-80(%rbp), %rax	#, tmp107
	movq	%rax, %rdi	# tmp107,
	call	_ZNSt8weak_ptrIiED1Ev	#
# c++11.cpp:125: }
	jmp	.L219	#
.L218:
	movq	%rax, %rbx	#, tmp109
# c++11.cpp:118:     weak_ptr<int> wp;
	leaq	-80(%rbp), %rax	#, tmp108
	movq	%rax, %rdi	# tmp108,
	call	_ZNSt8weak_ptrIiED1Ev	#
	movq	%rbx, %rax	# tmp109, D.261669
	movq	%rax, %rdi	# D.261669,
.LEHB11:
	call	_Unwind_Resume	#
.LEHE11:
.L219:
# c++11.cpp:125: }
	addq	$88, %rsp	#,
	popq	%rbx	#
	popq	%rbp	#
	.cfi_def_cfa 7, 8
	ret
	.cfi_endproc
.LFE7944:
	.section	.gcc_except_table
.LLSDA7944:
	.byte	0xff
	.byte	0xff
	.byte	0x1
	.uleb128 .LLSDACSE7944-.LLSDACSB7944
.LLSDACSB7944:
	.uleb128 .LEHB10-.LFB7944
	.uleb128 .LEHE10-.LEHB10
	.uleb128 .L218-.LFB7944
	.uleb128 0
	.uleb128 .LEHB11-.LFB7944
	.uleb128 .LEHE11-.LEHB11
	.uleb128 0
	.uleb128 0
.LLSDACSE7944:
	.text
	.size	_Z12weak_pointerv, .-_Z12weak_pointerv
	.section	.rodata
.LC24:
	.string	"a[2] == 3"
.LC25:
	.string	"1"
.LC26:
	.string	"2"
.LC27:
	.string	"3"
.LC28:
	.string	"as[2] == \"3\""
	.text
	.globl	_Z17dynamic_memory_11v
	.type	_Z17dynamic_memory_11v, @function
_Z17dynamic_memory_11v:
.LFB7960:
	.cfi_startproc
	.cfi_personality 0x3,__gxx_personality_v0
	.cfi_lsda 0x3,.LLSDA7960
	pushq	%rbp	#
	.cfi_def_cfa_offset 16
	.cfi_offset 6, -16
	movq	%rsp, %rbp	#,
	.cfi_def_cfa_register 6
	pushq	%r14	#
	pushq	%r13	#
	pushq	%r12	#
	pushq	%rbx	#
	subq	$32, %rsp	#,
	.cfi_offset 14, -24
	.cfi_offset 13, -32
	.cfi_offset 12, -40
	.cfi_offset 3, -48
# c++11.cpp:135:     auto a = new int[3] { 1, 2, 3 };
	movl	$12, %edi	#,
.LEHB12:
	call	_Znam	#
	movq	%rax, %rdx	# tmp117, _22
	movq	%rdx, %rax	# _22, _24
	movl	$1, (%rax)	#, *_25
	addq	$4, %rax	#, _28
	movl	$2, (%rax)	#, *_28
	addq	$4, %rax	#, _31
	movl	$3, (%rax)	#, *_31
	movq	%rdx, -40(%rbp)	# _22, a
# c++11.cpp:136:     assert(a[2] == 3);
	movq	-40(%rbp), %rax	# a, tmp118
	addq	$8, %rax	#, _1
	movl	(%rax), %eax	# *_1, _2
# c++11.cpp:136:     assert(a[2] == 3);
	cmpl	$3, %eax	#, _2
	je	.L221	#,
# c++11.cpp:136:     assert(a[2] == 3);
	movl	$_ZZ17dynamic_memory_11vE19__PRETTY_FUNCTION__, %ecx	#,
	movl	$136, %edx	#,
	movl	$.LC1, %esi	#,
	movl	$.LC24, %edi	#,
	call	__assert_fail	#
.L221:
# c++11.cpp:137:     delete a;
	movq	-40(%rbp), %rax	# a, tmp119
	movq	%rax, %rdi	# tmp119,
	call	_ZdlPv	#
# c++11.cpp:139:     auto as = new string[3] { "1", "2", "3" };
	movl	$32, %edi	#,
	call	_Znam	#
.LEHE12:
	movq	%rax, %r12	# tmp120, _41
	movq	$3, (%r12)	#, MEM[(sizetype *)_42]
	leaq	8(%r12), %rbx	#, _44
	movl	$2, %r13d	#, _12
	leaq	-51(%rbp), %rax	#, tmp121
	movq	%rax, %rdi	# tmp121,
	call	_ZNSaIcEC1Ev	#
	leaq	-51(%rbp), %rax	#, tmp122
	movq	%rax, %rdx	# tmp122,
	movl	$.LC25, %esi	#,
	movq	%rbx, %rdi	# _44,
.LEHB13:
	call	_ZNSsC1EPKcRKSaIcE	#
.LEHE13:
# c++11.cpp:139:     auto as = new string[3] { "1", "2", "3" };
	leaq	-51(%rbp), %rax	#, tmp123
	movq	%rax, %rdi	# tmp123,
	call	_ZNSaIcED1Ev	#
	leaq	8(%rbx), %r14	#, _51
	subq	$1, %r13	#, _12
	leaq	-50(%rbp), %rax	#, tmp124
	movq	%rax, %rdi	# tmp124,
	call	_ZNSaIcEC1Ev	#
	leaq	-50(%rbp), %rax	#, tmp125
	movq	%rax, %rdx	# tmp125,
	movl	$.LC26, %esi	#,
	movq	%r14, %rdi	# _51,
.LEHB14:
	call	_ZNSsC1EPKcRKSaIcE	#
.LEHE14:
# c++11.cpp:139:     auto as = new string[3] { "1", "2", "3" };
	leaq	-50(%rbp), %rax	#, tmp126
	movq	%rax, %rdi	# tmp126,
	call	_ZNSaIcED1Ev	#
	addq	$8, %r14	#, _57
	subq	$1, %r13	#, _12
	leaq	-49(%rbp), %rax	#, tmp127
	movq	%rax, %rdi	# tmp127,
	call	_ZNSaIcEC1Ev	#
	leaq	-49(%rbp), %rax	#, tmp128
	movq	%rax, %rdx	# tmp128,
	movl	$.LC27, %esi	#,
	movq	%r14, %rdi	# _57,
.LEHB15:
	call	_ZNSsC1EPKcRKSaIcE	#
.LEHE15:
# c++11.cpp:139:     auto as = new string[3] { "1", "2", "3" };
	leaq	-49(%rbp), %rax	#, tmp129
	movq	%rax, %rdi	# tmp129,
	call	_ZNSaIcED1Ev	#
	leaq	8(%r12), %rax	#, tmp130
	movq	%rax, -48(%rbp)	# tmp130, as
# c++11.cpp:140:     assert(as[2] == "3");
	movq	-48(%rbp), %rax	# as, tmp131
	addq	$16, %rax	#, _6
	movl	$.LC27, %esi	#,
	movq	%rax, %rdi	# _6,
	call	_ZSteqIcSt11char_traitsIcESaIcEEbRKSbIT_T0_T1_EPKS3_	#
# c++11.cpp:140:     assert(as[2] == "3");
	testb	%al, %al	# _7
	jne	.L222	#,
# c++11.cpp:140:     assert(as[2] == "3");
	movl	$_ZZ17dynamic_memory_11vE19__PRETTY_FUNCTION__, %ecx	#,
	movl	$140, %edx	#,
	movl	$.LC1, %esi	#,
	movl	$.LC28, %edi	#,
	call	__assert_fail	#
.L222:
# c++11.cpp:141:     delete[] as; // calls destructors for all members
	cmpq	$0, -48(%rbp)	#, as
	je	.L223	#,
# c++11.cpp:141:     delete[] as; // calls destructors for all members
	movq	-48(%rbp), %rax	# as, tmp132
	subq	$8, %rax	#, _8
	movq	(%rax), %rax	# *_8, _9
	leaq	0(,%rax,8), %rdx	#, _10
	movq	-48(%rbp), %rax	# as, tmp133
	leaq	(%rdx,%rax), %rbx	#, _14
.L225:
	cmpq	-48(%rbp), %rbx	# as, _14
	je	.L224	#,
	subq	$8, %rbx	#, _14
# c++11.cpp:141:     delete[] as; // calls destructors for all members
	movq	%rbx, %rdi	# _14,
	call	_ZNSsD1Ev	#
	jmp	.L225	#
.L224:
# c++11.cpp:141:     delete[] as; // calls destructors for all members
	movq	-48(%rbp), %rax	# as, tmp134
	subq	$8, %rax	#, _11
	movq	%rax, %rdi	# _11,
	call	_ZdaPv	#
.L223:
.LEHB16:
# c++11.cpp:143:     unique_pointer();
	call	_Z14unique_pointerv	#
# c++11.cpp:145:     shared_pointer();
	call	_Z14shared_pointerv	#
# c++11.cpp:147:     weak_pointer();
	call	_Z12weak_pointerv	#
# c++11.cpp:148: }
	jmp	.L235	#
.L232:
	movq	%rax, %r14	#, tmp137
# c++11.cpp:139:     auto as = new string[3] { "1", "2", "3" };
	leaq	-51(%rbp), %rax	#, tmp135
	movq	%rax, %rdi	# tmp135,
	call	_ZNSaIcED1Ev	#
	jmp	.L227	#
.L233:
	movq	%rax, %r14	#, tmp141
	leaq	-50(%rbp), %rax	#, tmp140
	movq	%rax, %rdi	# tmp140,
	call	_ZNSaIcED1Ev	#
	jmp	.L227	#
.L234:
	movq	%rax, %r14	#, tmp144
	leaq	-49(%rbp), %rax	#, tmp143
	movq	%rax, %rdi	# tmp143,
	call	_ZNSaIcED1Ev	#
.L227:
	testq	%rbx, %rbx	# _44
	je	.L230	#,
# c++11.cpp:139:     auto as = new string[3] { "1", "2", "3" };
	movl	$2, %eax	#, tmp146
	subq	%r13, %rax	# _12, _3
	salq	$3, %rax	#, _5
	leaq	(%rbx,%rax), %r13	#, _13
.L231:
	cmpq	%rbx, %r13	# _44, _13
	je	.L230	#,
	subq	$8, %r13	#, _13
# c++11.cpp:139:     auto as = new string[3] { "1", "2", "3" };
	movq	%r13, %rdi	# _13,
	call	_ZNSsD1Ev	#
	jmp	.L231	#
.L230:
	movq	%r14, %rbx	# tmp136, tmp147
# c++11.cpp:139:     auto as = new string[3] { "1", "2", "3" };
	movq	%r12, %rdi	# _41,
	call	_ZdaPv	#
	movq	%rbx, %rax	# tmp147, D.261676
	movq	%rax, %rdi	# D.261676,
	call	_Unwind_Resume	#
.LEHE16:
.L235:
# c++11.cpp:148: }
	addq	$32, %rsp	#,
	popq	%rbx	#
	popq	%r12	#
	popq	%r13	#
	popq	%r14	#
	popq	%rbp	#
	.cfi_def_cfa 7, 8
	ret
	.cfi_endproc
.LFE7960:
	.section	.gcc_except_table
.LLSDA7960:
	.byte	0xff
	.byte	0xff
	.byte	0x1
	.uleb128 .LLSDACSE7960-.LLSDACSB7960
.LLSDACSB7960:
	.uleb128 .LEHB12-.LFB7960
	.uleb128 .LEHE12-.LEHB12
	.uleb128 0
	.uleb128 0
	.uleb128 .LEHB13-.LFB7960
	.uleb128 .LEHE13-.LEHB13
	.uleb128 .L232-.LFB7960
	.uleb128 0
	.uleb128 .LEHB14-.LFB7960
	.uleb128 .LEHE14-.LEHB14
	.uleb128 .L233-.LFB7960
	.uleb128 0
	.uleb128 .LEHB15-.LFB7960
	.uleb128 .LEHE15-.LEHB15
	.uleb128 .L234-.LFB7960
	.uleb128 0
	.uleb128 .LEHB16-.LFB7960
	.uleb128 .LEHE16-.LEHB16
	.uleb128 0
	.uleb128 0
.LLSDACSE7960:
	.text
	.size	_Z17dynamic_memory_11v, .-_Z17dynamic_memory_11v
	.globl	_Z9func_typeRKi
	.type	_Z9func_typeRKi, @function
_Z9func_typeRKi:
.LFB7961:
	.cfi_startproc
	pushq	%rbp	#
	.cfi_def_cfa_offset 16
	.cfi_offset 6, -16
	movq	%rsp, %rbp	#,
	.cfi_def_cfa_register 6
	movq	%rdi, -8(%rbp)	# x, x
# c++11.cpp:157:     return 'C';
	movl	$67, %eax	#, _1
# c++11.cpp:158: }
	popq	%rbp	#
	.cfi_def_cfa 7, 8
	ret
	.cfi_endproc
.LFE7961:
	.size	_Z9func_typeRKi, .-_Z9func_typeRKi
	.globl	_Z9func_typeRi
	.type	_Z9func_typeRi, @function
_Z9func_typeRi:
.LFB7962:
	.cfi_startproc
	pushq	%rbp	#
	.cfi_def_cfa_offset 16
	.cfi_offset 6, -16
	movq	%rsp, %rbp	#,
	.cfi_def_cfa_register 6
	movq	%rdi, -8(%rbp)	# x, x
# c++11.cpp:163:     return 'L';
	movl	$76, %eax	#, _1
# c++11.cpp:164: }
	popq	%rbp	#
	.cfi_def_cfa 7, 8
	ret
	.cfi_endproc
.LFE7962:
	.size	_Z9func_typeRi, .-_Z9func_typeRi
	.globl	_Z9func_typeOi
	.type	_Z9func_typeOi, @function
_Z9func_typeOi:
.LFB7963:
	.cfi_startproc
	pushq	%rbp	#
	.cfi_def_cfa_offset 16
	.cfi_offset 6, -16
	movq	%rsp, %rbp	#,
	.cfi_def_cfa_register 6
	movq	%rdi, -8(%rbp)	# x, x
# c++11.cpp:169:     return 'R';
	movl	$82, %eax	#, _1
# c++11.cpp:170: }
	popq	%rbp	#
	.cfi_def_cfa 7, 8
	ret
	.cfi_endproc
.LFE7963:
	.size	_Z9func_typeOi, .-_Z9func_typeOi
	.section	.rodata
.LC29:
	.string	"func_type(3) == 'R'"
.LC30:
	.string	"func_type(c) == 'C'"
.LC31:
	.string	"func_type(move(i)) == 'R'"
.LC32:
	.string	"func_type_template(c) == 'C'"
.LC33:
	.string	"func_type_template(i) == 'L'"
.LC34:
	.string	"func_type_template(3) == 'R'"
.LC35:
	.string	"i == 3"
.LC36:
	.string	"cr == 3"
	.text
	.globl	_Z13references_11v
	.type	_Z13references_11v, @function
_Z13references_11v:
.LFB7965:
	.cfi_startproc
	pushq	%rbp	#
	.cfi_def_cfa_offset 16
	.cfi_offset 6, -16
	movq	%rsp, %rbp	#,
	.cfi_def_cfa_register 6
	subq	$32, %rsp	#,
# c++11.cpp:204:     const int c = 1;
	movl	$1, -12(%rbp)	#, c
# c++11.cpp:205:     int i = 2;
	movl	$2, -16(%rbp)	#, i
# c++11.cpp:207:     assert(func_type(3) == 'R');
	movl	$3, -8(%rbp)	#, D.170921
	leaq	-8(%rbp), %rax	#, tmp98
	movq	%rax, %rdi	# tmp98,
	call	_Z9func_typeOi	#
# c++11.cpp:207:     assert(func_type(3) == 'R');
	cmpb	$82, %al	#, _1
	je	.L243	#,
# c++11.cpp:207:     assert(func_type(3) == 'R');
	movl	$_ZZ13references_11vE19__PRETTY_FUNCTION__, %ecx	#,
	movl	$207, %edx	#,
	movl	$.LC1, %esi	#,
	movl	$.LC29, %edi	#,
	call	__assert_fail	#
.L243:
# c++11.cpp:208:     assert(func_type(c) == 'C');
	leaq	-12(%rbp), %rax	#, tmp99
	movq	%rax, %rdi	# tmp99,
	call	_Z9func_typeRKi	#
# c++11.cpp:208:     assert(func_type(c) == 'C');
	cmpb	$67, %al	#, _2
	je	.L244	#,
# c++11.cpp:208:     assert(func_type(c) == 'C');
	movl	$_ZZ13references_11vE19__PRETTY_FUNCTION__, %ecx	#,
	movl	$208, %edx	#,
	movl	$.LC1, %esi	#,
	movl	$.LC30, %edi	#,
	call	__assert_fail	#
.L244:
# c++11.cpp:209:     assert(func_type(move(i)) == 'R');
	leaq	-16(%rbp), %rax	#, tmp100
	movq	%rax, %rdi	# tmp100,
	call	_ZSt4moveIRiEONSt16remove_referenceIT_E4typeEOS2_	#
	movq	%rax, %rdi	# _3,
	call	_Z9func_typeOi	#
# c++11.cpp:209:     assert(func_type(move(i)) == 'R');
	cmpb	$82, %al	#, _4
	je	.L245	#,
# c++11.cpp:209:     assert(func_type(move(i)) == 'R');
	movl	$_ZZ13references_11vE19__PRETTY_FUNCTION__, %ecx	#,
	movl	$209, %edx	#,
	movl	$.LC1, %esi	#,
	movl	$.LC31, %edi	#,
	call	__assert_fail	#
.L245:
# c++11.cpp:211:     assert(func_type_template(c) == 'C');
	leaq	-12(%rbp), %rax	#, tmp101
	movq	%rax, %rdi	# tmp101,
	call	_Z18func_type_templateIRKiEcOT_	#
# c++11.cpp:211:     assert(func_type_template(c) == 'C');
	cmpb	$67, %al	#, _5
	je	.L246	#,
# c++11.cpp:211:     assert(func_type_template(c) == 'C');
	movl	$_ZZ13references_11vE19__PRETTY_FUNCTION__, %ecx	#,
	movl	$211, %edx	#,
	movl	$.LC1, %esi	#,
	movl	$.LC32, %edi	#,
	call	__assert_fail	#
.L246:
# c++11.cpp:212:     assert(func_type_template(i) == 'L');
	leaq	-16(%rbp), %rax	#, tmp102
	movq	%rax, %rdi	# tmp102,
	call	_Z18func_type_templateIRiEcOT_	#
# c++11.cpp:212:     assert(func_type_template(i) == 'L');
	cmpb	$76, %al	#, _6
	je	.L247	#,
# c++11.cpp:212:     assert(func_type_template(i) == 'L');
	movl	$_ZZ13references_11vE19__PRETTY_FUNCTION__, %ecx	#,
	movl	$212, %edx	#,
	movl	$.LC1, %esi	#,
	movl	$.LC33, %edi	#,
	call	__assert_fail	#
.L247:
# c++11.cpp:213:     assert(func_type_template(3) == 'R');
	movl	$3, -4(%rbp)	#, D.170934
	leaq	-4(%rbp), %rax	#, tmp103
	movq	%rax, %rdi	# tmp103,
	call	_Z18func_type_templateIiEcOT_	#
# c++11.cpp:213:     assert(func_type_template(3) == 'R');
	cmpb	$82, %al	#, _7
	je	.L248	#,
# c++11.cpp:213:     assert(func_type_template(3) == 'R');
	movl	$_ZZ13references_11vE19__PRETTY_FUNCTION__, %ecx	#,
	movl	$213, %edx	#,
	movl	$.LC1, %esi	#,
	movl	$.LC34, %edi	#,
	call	__assert_fail	#
.L248:
# c++11.cpp:214:     reference_wrapper<int> rw = i;
	leaq	-16(%rbp), %rdx	#, tmp104
	leaq	-24(%rbp), %rax	#, tmp105
	movq	%rdx, %rsi	# tmp104,
	movq	%rax, %rdi	# tmp105,
	call	_ZNSt17reference_wrapperIiEC1ERi	#
# c++11.cpp:215:     rw.get() = 3;
	leaq	-24(%rbp), %rax	#, tmp106
	movq	%rax, %rdi	# tmp106,
	call	_ZNKSt17reference_wrapperIiE3getEv	#
	movl	$3, (%rax)	#, *_8
# c++11.cpp:216:     assert(i == 3);
	movl	-16(%rbp), %eax	# i, i.25_9
# c++11.cpp:216:     assert(i == 3);
	cmpl	$3, %eax	#, i.25_9
	je	.L249	#,
# c++11.cpp:216:     assert(i == 3);
	movl	$_ZZ13references_11vE19__PRETTY_FUNCTION__, %ecx	#,
	movl	$216, %edx	#,
	movl	$.LC1, %esi	#,
	movl	$.LC35, %edi	#,
	call	__assert_fail	#
.L249:
# c++11.cpp:217:     auto cr = cref(i);
	leaq	-16(%rbp), %rax	#, tmp107
	movq	%rax, %rdi	# tmp107,
	call	_ZSt4crefIiESt17reference_wrapperIKT_ERS2_	#
	movq	%rax, -32(%rbp)	# tmp109, cr
# c++11.cpp:218:     assert(cr == 3);
	leaq	-32(%rbp), %rax	#, tmp110
	movq	%rax, %rdi	# tmp110,
	call	_ZNKSt17reference_wrapperIKiEcvRS0_Ev	#
	movl	(%rax), %eax	# *_10, _11
# c++11.cpp:218:     assert(cr == 3);
	cmpl	$3, %eax	#, _11
	je	.L251	#,
# c++11.cpp:218:     assert(cr == 3);
	movl	$_ZZ13references_11vE19__PRETTY_FUNCTION__, %ecx	#,
	movl	$218, %edx	#,
	movl	$.LC1, %esi	#,
	movl	$.LC36, %edi	#,
	call	__assert_fail	#
.L251:
# c++11.cpp:219: }
	nop
	leave
	.cfi_def_cfa 7, 8
	ret
	.cfi_endproc
.LFE7965:
	.size	_Z13references_11v, .-_Z13references_11v
	.section	.text._ZNKSt16initializer_listIiE5beginEv,"axG",@progbits,_ZNKSt16initializer_listIiE5beginEv,comdat
	.align 2
	.weak	_ZNKSt16initializer_listIiE5beginEv
	.type	_ZNKSt16initializer_listIiE5beginEv, @function
_ZNKSt16initializer_listIiE5beginEv:
.LFB7968:
	.cfi_startproc
	pushq	%rbp	#
	.cfi_def_cfa_offset 16
	.cfi_offset 6, -16
	movq	%rsp, %rbp	#,
	.cfi_def_cfa_register 6
	movq	%rdi, -8(%rbp)	# this, this
# /opt/rh/devtoolset-7/root/usr/include/c++/7/initializer_list:75:       begin() const noexcept { return _M_array; }
	movq	-8(%rbp), %rax	# this, tmp89
	movq	(%rax), %rax	# this_2(D)->_M_array, _3
	popq	%rbp	#
	.cfi_def_cfa 7, 8
	ret
	.cfi_endproc
.LFE7968:
	.size	_ZNKSt16initializer_listIiE5beginEv, .-_ZNKSt16initializer_listIiE5beginEv
	.section	.text._ZNKSt16initializer_listIiE4sizeEv,"axG",@progbits,_ZNKSt16initializer_listIiE4sizeEv,comdat
	.align 2
	.weak	_ZNKSt16initializer_listIiE4sizeEv
	.type	_ZNKSt16initializer_listIiE4sizeEv, @function
_ZNKSt16initializer_listIiE4sizeEv:
.LFB7969:
	.cfi_startproc
	pushq	%rbp	#
	.cfi_def_cfa_offset 16
	.cfi_offset 6, -16
	movq	%rsp, %rbp	#,
	.cfi_def_cfa_register 6
	movq	%rdi, -8(%rbp)	# this, this
# /opt/rh/devtoolset-7/root/usr/include/c++/7/initializer_list:71:       size() const noexcept { return _M_len; }
	movq	-8(%rbp), %rax	# this, tmp89
	movq	8(%rax), %rax	# this_2(D)->_M_len, _3
	popq	%rbp	#
	.cfi_def_cfa 7, 8
	ret
	.cfi_endproc
.LFE7969:
	.size	_ZNKSt16initializer_listIiE4sizeEv, .-_ZNKSt16initializer_listIiE4sizeEv
	.section	.rodata
.LC37:
	.string	"*il.begin() == 3"
.LC38:
	.string	"il.size() == 4"
	.text
	.align 2
	.type	_ZZ7init_11vENKUlSt16initializer_listIiEE_clES0_, @function
_ZZ7init_11vENKUlSt16initializer_listIiEE_clES0_:
.LFB7967:
	.cfi_startproc
	pushq	%rbp	#
	.cfi_def_cfa_offset 16
	.cfi_offset 6, -16
	movq	%rsp, %rbp	#,
	.cfi_def_cfa_register 6
	subq	$32, %rsp	#,
	movq	%rdi, -8(%rbp)	# __closure, __closure
	movq	%rsi, %rax	# il, tmp91
	movq	%rdx, %rcx	# il, tmp92
	movq	%rcx, %rdx	# tmp92,
	movq	%rax, -32(%rbp)	# tmp90, il
	movq	%rdx, -24(%rbp)	#, il
# c++11.cpp:248:         assert(*il.begin() == 3);
	leaq	-32(%rbp), %rax	#, tmp93
	movq	%rax, %rdi	# tmp93,
	call	_ZNKSt16initializer_listIiE5beginEv	#
	movl	(%rax), %eax	# *_1, _2
# c++11.cpp:248:         assert(*il.begin() == 3);
	cmpl	$3, %eax	#, _2
	je	.L257	#,
# c++11.cpp:248:         assert(*il.begin() == 3);
	movl	$_ZZZ7init_11vENKUlSt16initializer_listIiEE_clES0_E19__PRETTY_FUNCTION__, %ecx	#,
	movl	$248, %edx	#,
	movl	$.LC1, %esi	#,
	movl	$.LC37, %edi	#,
	call	__assert_fail	#
.L257:
# c++11.cpp:249:         assert(il.size() == 4);
	leaq	-32(%rbp), %rax	#, tmp94
	movq	%rax, %rdi	# tmp94,
	call	_ZNKSt16initializer_listIiE4sizeEv	#
# c++11.cpp:249:         assert(il.size() == 4);
	cmpq	$4, %rax	#, _3
	je	.L259	#,
# c++11.cpp:249:         assert(il.size() == 4);
	movl	$_ZZZ7init_11vENKUlSt16initializer_listIiEE_clES0_E19__PRETTY_FUNCTION__, %ecx	#,
	movl	$249, %edx	#,
	movl	$.LC1, %esi	#,
	movl	$.LC38, %edi	#,
	call	__assert_fail	#
.L259:
# c++11.cpp:250:     };
	nop
	leave
	.cfi_def_cfa 7, 8
	ret
	.cfi_endproc
.LFE7967:
	.size	_ZZ7init_11vENKUlSt16initializer_listIiEE_clES0_, .-_ZZ7init_11vENKUlSt16initializer_listIiEE_clES0_
	.section	.rodata
.LC39:
	.string	"!z1.a"
.LC40:
	.string	"!z2.a"
.LC41:
	.string	"!z3.a"
	.text
	.globl	_Z7init_11v
	.type	_Z7init_11v, @function
_Z7init_11v:
.LFB7966:
	.cfi_startproc
	pushq	%rbp	#
	.cfi_def_cfa_offset 16
	.cfi_offset 6, -16
	movq	%rsp, %rbp	#,
	.cfi_def_cfa_register 6
	pushq	%rbx	#
	subq	$88, %rsp	#,
	.cfi_offset 3, -24
# c++11.cpp:243:     auto o2 = C { 1, 2, 3 };
	movl	$1, -28(%rbp)	#, o2.a
	movl	$2, -24(%rbp)	#, o2.b
	movl	$3, -20(%rbp)	#, o2.c
# c++11.cpp:244:     C o3 { 1, 2, 3 };
	movl	$1, -40(%rbp)	#, o3.a
	movl	$2, -36(%rbp)	#, o3.b
	movl	$3, -32(%rbp)	#, o3.c
# c++11.cpp:251:     uses_il({ 3, 2, 1, 0 });
	movl	$._125, %eax	#, D.256364
	movl	$4, %edx	#, D.256364
	movq	%rax, %rcx	# D.256364, tmp91
	movq	%rdx, %rbx	# D.256364,
	leaq	-41(%rbp), %rax	#, tmp95
	movq	%rcx, %rsi	# tmp93,
	movq	%rax, %rdi	# tmp95,
	call	_ZZ7init_11vENKUlSt16initializer_listIiEE_clES0_	#
# c++11.cpp:253:     auto z1 = C();
	movl	$0, -56(%rbp)	#, z1.a
	movl	$0, -52(%rbp)	#, z1.b
	movl	$0, -48(%rbp)	#, z1.c
# c++11.cpp:254:     C z2 = {};
	movq	$0, -68(%rbp)	#, z2
	movl	$0, -60(%rbp)	#, z2
# c++11.cpp:255:     auto z3 = C {};
	movq	$0, -80(%rbp)	#, z3
	movl	$0, -72(%rbp)	#, z3
# c++11.cpp:257:     assert(!z1.a);
	movl	-56(%rbp), %eax	# z1.a, _1
# c++11.cpp:257:     assert(!z1.a);
	testl	%eax, %eax	# _1
	je	.L261	#,
# c++11.cpp:257:     assert(!z1.a);
	movl	$_ZZ7init_11vE19__PRETTY_FUNCTION__, %ecx	#,
	movl	$257, %edx	#,
	movl	$.LC1, %esi	#,
	movl	$.LC39, %edi	#,
	call	__assert_fail	#
.L261:
# c++11.cpp:258:     assert(!z2.a);
	movl	-68(%rbp), %eax	# z2.a, _2
# c++11.cpp:258:     assert(!z2.a);
	testl	%eax, %eax	# _2
	je	.L262	#,
# c++11.cpp:258:     assert(!z2.a);
	movl	$_ZZ7init_11vE19__PRETTY_FUNCTION__, %ecx	#,
	movl	$258, %edx	#,
	movl	$.LC1, %esi	#,
	movl	$.LC40, %edi	#,
	call	__assert_fail	#
.L262:
# c++11.cpp:259:     assert(!z3.a);
	movl	-80(%rbp), %eax	# z3.a, _3
# c++11.cpp:259:     assert(!z3.a);
	testl	%eax, %eax	# _3
	je	.L263	#,
# c++11.cpp:259:     assert(!z3.a);
	movl	$_ZZ7init_11vE19__PRETTY_FUNCTION__, %ecx	#,
	movl	$259, %edx	#,
	movl	$.LC1, %esi	#,
	movl	$.LC41, %edi	#,
	call	__assert_fail	#
.L263:
# c++11.cpp:260:     array<int, 3> a { 1, 2 };
	movq	$0, -92(%rbp)	#, a
	movl	$0, -84(%rbp)	#, a
	movl	$1, -92(%rbp)	#, a._M_elems
	movl	$2, -88(%rbp)	#, a._M_elems
# c++11.cpp:261: }
	nop
	addq	$88, %rsp	#,
	popq	%rbx	#
	popq	%rbp	#
	.cfi_def_cfa 7, 8
	ret
	.cfi_endproc
.LFE7966:
	.size	_Z7init_11v, .-_Z7init_11v
	.globl	auto_int
	.data
	.align 4
	.type	auto_int, @object
	.size	auto_int, 4
auto_int:
	.long	1
	.text
	.globl	_Z20trailing_return_typei
	.type	_Z20trailing_return_typei, @function
_Z20trailing_return_typei:
.LFB7972:
	.cfi_startproc
	pushq	%rbp	#
	.cfi_def_cfa_offset 16
	.cfi_offset 6, -16
	movq	%rsp, %rbp	#,
	.cfi_def_cfa_register 6
	movl	%edi, -4(%rbp)	# a, a
# c++11.cpp:278:     return a;
	movl	-4(%rbp), %eax	# a, _2
# c++11.cpp:279: }
	popq	%rbp	#
	.cfi_def_cfa 7, 8
	ret
	.cfi_endproc
.LFE7972:
	.size	_Z20trailing_return_typei, .-_Z20trailing_return_typei
	.align 2
	.type	_ZZ17copy_elision_demovEN4Obj2C2Ev, @function
_ZZ17copy_elision_demovEN4Obj2C2Ev:
.LFB7976:
	.cfi_startproc
	pushq	%rbp	#
	.cfi_def_cfa_offset 16
	.cfi_offset 6, -16
	movq	%rsp, %rbp	#,
	.cfi_def_cfa_register 6
	movq	%rdi, -8(%rbp)	# this, this
# c++11.cpp:285:     struct Obj2 {
	movq	-8(%rbp), %rax	# this, tmp87
	movq	-8(%rbp), %rdx	# this, tmp88
	movq	%rdx, (%rax)	# tmp88, this_2(D)->orig
	nop
	popq	%rbp	#
	.cfi_def_cfa 7, 8
	ret
	.cfi_endproc
.LFE7976:
	.size	_ZZ17copy_elision_demovEN4Obj2C2Ev, .-_ZZ17copy_elision_demovEN4Obj2C2Ev
	.set	_ZZ17copy_elision_demovEN4Obj2C1Ev,_ZZ17copy_elision_demovEN4Obj2C2Ev
	.align 2
	.type	_ZZ17copy_elision_demovENKUlvE_clEv, @function
_ZZ17copy_elision_demovENKUlvE_clEv:
.LFB7974:
	.cfi_startproc
	pushq	%rbp	#
	.cfi_def_cfa_offset 16
	.cfi_offset 6, -16
	movq	%rsp, %rbp	#,
	.cfi_def_cfa_register 6
	subq	$16, %rsp	#,
	movq	%rdi, -8(%rbp)	# .result_ptr, .result_ptr
	movq	%rsi, -16(%rbp)	# __closure, __closure
# c++11.cpp:289:     auto&& o2 = []() { return Obj2(); }();
	movq	-8(%rbp), %rax	# .result_ptr, tmp88
	movq	$0, (%rax)	#, <retval>.orig
	movl	$0, %eax	#, _1
.L269:
# c++11.cpp:289:     auto&& o2 = []() { return Obj2(); }();
	movq	-8(%rbp), %rdx	# .result_ptr, tmp89
	movl	$0, 8(%rdx,%rax,4)	#, <retval>.ballast
	cmpq	$3, %rax	#, _1
	je	.L268	#,
# c++11.cpp:289:     auto&& o2 = []() { return Obj2(); }();
	addq	$1, %rax	#, _1
	jmp	.L269	#
.L268:
# c++11.cpp:289:     auto&& o2 = []() { return Obj2(); }();
	movq	-8(%rbp), %rax	# .result_ptr, tmp90
	movq	%rax, %rdi	# tmp90,
	call	_ZZ17copy_elision_demovEN4Obj2C1Ev	#
	movq	-8(%rbp), %rax	# .result_ptr,
	leave
	.cfi_def_cfa 7, 8
	ret
	.cfi_endproc
.LFE7974:
	.size	_ZZ17copy_elision_demovENKUlvE_clEv, .-_ZZ17copy_elision_demovENKUlvE_clEv
	.section	.rodata
.LC42:
	.string	"&o2 == o2.orig"
	.text
	.globl	_Z17copy_elision_demov
	.type	_Z17copy_elision_demov, @function
_Z17copy_elision_demov:
.LFB7973:
	.cfi_startproc
	pushq	%rbp	#
	.cfi_def_cfa_offset 16
	.cfi_offset 6, -16
	movq	%rsp, %rbp	#,
	.cfi_def_cfa_register 6
	subq	$48, %rsp	#,
# c++11.cpp:289:     auto&& o2 = []() { return Obj2(); }();
	leaq	-48(%rbp), %rax	#, tmp88
	leaq	-9(%rbp), %rdx	#, tmp89
	movq	%rdx, %rsi	# tmp89,
	movq	%rax, %rdi	# tmp88,
	call	_ZZ17copy_elision_demovENKUlvE_clEv	#
	leaq	-48(%rbp), %rax	#, tmp90
	movq	%rax, -8(%rbp)	# tmp90, o2
# c++11.cpp:290:     assert(&o2 == o2.orig);
	movq	-8(%rbp), %rax	# o2, tmp91
	movq	(%rax), %rax	# o2_4->orig, _1
# c++11.cpp:290:     assert(&o2 == o2.orig);
	cmpq	%rax, -8(%rbp)	# _1, o2
	je	.L273	#,
# c++11.cpp:290:     assert(&o2 == o2.orig);
	movl	$_ZZ17copy_elision_demovE19__PRETTY_FUNCTION__, %ecx	#,
	movl	$290, %edx	#,
	movl	$.LC1, %esi	#,
	movl	$.LC42, %edi	#,
	call	__assert_fail	#
.L273:
# c++11.cpp:291: }
	nop
	leave
	.cfi_def_cfa 7, 8
	ret
	.cfi_endproc
.LFE7973:
	.size	_Z17copy_elision_demov, .-_Z17copy_elision_demov
	.align 2
	.type	_ZZ7func_11vENK7functorclEi, @function
_ZZ7func_11vENK7functorclEi:
.LFB7981:
	.cfi_startproc
	pushq	%rbp	#
	.cfi_def_cfa_offset 16
	.cfi_offset 6, -16
	movq	%rsp, %rbp	#,
	.cfi_def_cfa_register 6
	movq	%rdi, -8(%rbp)	# this, this
	movl	%esi, -12(%rbp)	# a, a
# c++11.cpp:301:             return a + y;
	movq	-8(%rbp), %rax	# this, tmp90
	movl	(%rax), %edx	# this_3(D)->y, _1
	movl	-12(%rbp), %eax	# a, tmp91
	addl	%edx, %eax	# _1, _5
# c++11.cpp:302:         }
	popq	%rbp	#
	.cfi_def_cfa 7, 8
	ret
	.cfi_endproc
.LFE7981:
	.size	_ZZ7func_11vENK7functorclEi, .-_ZZ7func_11vENK7functorclEi
	.section	.text._ZNSt8functionIFiiEED2Ev,"axG",@progbits,_ZNSt8functionIFiiEED5Ev,comdat
	.align 2
	.weak	_ZNSt8functionIFiiEED2Ev
	.type	_ZNSt8functionIFiiEED2Ev, @function
_ZNSt8functionIFiiEED2Ev:
.LFB7986:
	.cfi_startproc
	pushq	%rbp	#
	.cfi_def_cfa_offset 16
	.cfi_offset 6, -16
	movq	%rsp, %rbp	#,
	.cfi_def_cfa_register 6
	subq	$16, %rsp	#,
	movq	%rdi, -8(%rbp)	# this, this
# /opt/rh/devtoolset-7/root/usr/include/c++/7/bits/std_function.h:389:     class function<_Res(_ArgTypes...)>
	movq	-8(%rbp), %rax	# this, _1
	movq	%rax, %rdi	# _1,
	call	_ZNSt14_Function_baseD2Ev	#
	nop
	leave
	.cfi_def_cfa 7, 8
	ret
	.cfi_endproc
.LFE7986:
	.size	_ZNSt8functionIFiiEED2Ev, .-_ZNSt8functionIFiiEED2Ev
	.weak	_ZNSt8functionIFiiEED1Ev
	.set	_ZNSt8functionIFiiEED1Ev,_ZNSt8functionIFiiEED2Ev
	.section	.rodata
.LC43:
	.string	"ft(1) == 2"
.LC44:
	.string	"ft(2) == 3"
	.text
	.globl	_Z7func_11v
	.type	_Z7func_11v, @function
_Z7func_11v:
.LFB7980:
	.cfi_startproc
	pushq	%rbp	#
	.cfi_def_cfa_offset 16
	.cfi_offset 6, -16
	movq	%rsp, %rbp	#,
	.cfi_def_cfa_register 6
	pushq	%rbx	#
	subq	$104, %rsp	#,
	.cfi_offset 3, -24
# c++11.cpp:304:     functor ft;
	movl	$1, -24(%rbp)	#, ft.y
# c++11.cpp:305:     assert(ft(1) == 2);
	leaq	-24(%rbp), %rax	#, tmp90
	movl	$1, %esi	#,
	movq	%rax, %rdi	# tmp90,
	call	_ZZ7func_11vENK7functorclEi	#
# c++11.cpp:305:     assert(ft(1) == 2);
	cmpl	$2, %eax	#, _1
	je	.L278	#,
# c++11.cpp:305:     assert(ft(1) == 2);
	movl	$_ZZ7func_11vE19__PRETTY_FUNCTION__, %ecx	#,
	movl	$305, %edx	#,
	movl	$.LC1, %esi	#,
	movl	$.LC43, %edi	#,
	call	__assert_fail	#
.L278:
# c++11.cpp:308:     function<int(int)> ft2 = ft;
	movl	-24(%rbp), %edx	# ft, tmp91
	leaq	-64(%rbp), %rax	#, tmp92
	movl	%edx, %esi	# tmp91,
	movq	%rax, %rdi	# tmp92,
	call	_ZNSt8functionIFiiEEC1IZ7func_11vE7functorvvEET_	#
# c++11.cpp:309:     assert(ft(2) == 3);
	leaq	-24(%rbp), %rax	#, tmp93
	movl	$2, %esi	#,
	movq	%rax, %rdi	# tmp93,
	call	_ZZ7func_11vENK7functorclEi	#
# c++11.cpp:309:     assert(ft(2) == 3);
	cmpl	$3, %eax	#, _2
	je	.L279	#,
# c++11.cpp:309:     assert(ft(2) == 3);
	movl	$_ZZ7func_11vE19__PRETTY_FUNCTION__, %ecx	#,
	movl	$309, %edx	#,
	movl	$.LC1, %esi	#,
	movl	$.LC44, %edi	#,
	call	__assert_fail	#
.L279:
	movl	$0, %ebx	#, finally_tmp.26_11
# c++11.cpp:310:     return;
	nop
	leaq	-64(%rbp), %rax	#, tmp94
	movq	%rax, %rdi	# tmp94,
	call	_ZNSt8functionIFiiEED1Ev	#
	cmpl	$1, %ebx	#, finally_tmp.26_11
# c++11.cpp:308:     function<int(int)> ft2 = ft;
	nop
# c++11.cpp:317: }
	addq	$104, %rsp	#,
	popq	%rbx	#
	popq	%rbp	#
	.cfi_def_cfa 7, 8
	ret
	.cfi_endproc
.LFE7980:
	.size	_Z7func_11v, .-_Z7func_11v
	.globl	_Z11language_11v
	.type	_Z11language_11v, @function
_Z11language_11v:
.LFB8003:
	.cfi_startproc
	pushq	%rbp	#
	.cfi_def_cfa_offset 16
	.cfi_offset 6, -16
	movq	%rsp, %rbp	#,
	.cfi_def_cfa_register 6
	subq	$16, %rsp	#,
# c++11.cpp:357:     types_11();
	call	_Z8types_11v	#
# c++11.cpp:358:     references_11();
	call	_Z13references_11v	#
# c++11.cpp:359:     init_11();
	call	_Z7init_11v	#
# c++11.cpp:360:     auto r = trailing_return_type(1);
	movl	$1, %edi	#,
	call	_Z20trailing_return_typei	#
	movl	%eax, -4(%rbp)	# tmp87, r
# c++11.cpp:362:     dynamic_memory_11();
	call	_Z17dynamic_memory_11v	#
# c++11.cpp:363:     func_11();
	call	_Z7func_11v	#
# c++11.cpp:364: }
	nop
	leave
	.cfi_def_cfa 7, 8
	ret
	.cfi_endproc
.LFE8003:
	.size	_Z11language_11v, .-_Z11language_11v
	.align 2
	.type	_ZZL13lambda_basicsvENKUlvE0_clEv, @function
_ZZL13lambda_basicsvENKUlvE0_clEv:
.LFB8008:
	.cfi_startproc
	pushq	%rbp	#
	.cfi_def_cfa_offset 16
	.cfi_offset 6, -16
	movq	%rsp, %rbp	#,
	.cfi_def_cfa_register 6
	movq	%rdi, -8(%rbp)	# __closure, __closure
# c++11.cpp:387:     auto closure = [] {};
	nop
	popq	%rbp	#
	.cfi_def_cfa 7, 8
	ret
	.cfi_endproc
.LFE8008:
	.size	_ZZL13lambda_basicsvENKUlvE0_clEv, .-_ZZL13lambda_basicsvENKUlvE0_clEv
	.align 2
	.type	_ZZL13lambda_basicsvENKUliE1_clEi, @function
_ZZL13lambda_basicsvENKUliE1_clEi:
.LFB8011:
	.cfi_startproc
	pushq	%rbp	#
	.cfi_def_cfa_offset 16
	.cfi_offset 6, -16
	movq	%rsp, %rbp	#,
	.cfi_def_cfa_register 6
	movq	%rdi, -8(%rbp)	# __closure, __closure
	movl	%esi, -12(%rbp)	# a, a
# c++11.cpp:392:     auto pass = [](int a) { return a; };
	movl	-12(%rbp), %eax	# a, _2
	popq	%rbp	#
	.cfi_def_cfa 7, 8
	ret
	.cfi_endproc
.LFE8011:
	.size	_ZZL13lambda_basicsvENKUliE1_clEi, .-_ZZL13lambda_basicsvENKUliE1_clEi
	.align 2
	.type	_ZZL13lambda_basicsvENKUlvE2_clEv, @function
_ZZL13lambda_basicsvENKUlvE2_clEv:
.LFB8014:
	.cfi_startproc
	pushq	%rbp	#
	.cfi_def_cfa_offset 16
	.cfi_offset 6, -16
	movq	%rsp, %rbp	#,
	.cfi_def_cfa_register 6
	movq	%rdi, -8(%rbp)	# __closure, __closure
# c++11.cpp:397:     auto get_i = [=]() { return c; };
	movq	-8(%rbp), %rax	# __closure, tmp89
	movl	(%rax), %eax	# __closure_2(D)->__c, _3
	popq	%rbp	#
	.cfi_def_cfa 7, 8
	ret
	.cfi_endproc
.LFE8014:
	.size	_ZZL13lambda_basicsvENKUlvE2_clEv, .-_ZZL13lambda_basicsvENKUlvE2_clEv
	.align 2
	.type	_ZZL13lambda_basicsvENKUlvE3_clEv, @function
_ZZL13lambda_basicsvENKUlvE3_clEv:
.LFB8015:
	.cfi_startproc
	pushq	%rbp	#
	.cfi_def_cfa_offset 16
	.cfi_offset 6, -16
	movq	%rsp, %rbp	#,
	.cfi_def_cfa_register 6
	movq	%rdi, -8(%rbp)	# __closure, __closure
# c++11.cpp:402:     auto inc_get = [&] { return ++c; };
	movq	-8(%rbp), %rax	# __closure, tmp92
	movq	(%rax), %rax	# __closure_5(D)->__c, _1
	movl	(%rax), %edx	# *_1, _2
	addl	$1, %edx	#, _3
	movl	%edx, (%rax)	# _3, *_1
	movl	(%rax), %eax	# *_1, _7
	popq	%rbp	#
	.cfi_def_cfa 7, 8
	ret
	.cfi_endproc
.LFE8015:
	.size	_ZZL13lambda_basicsvENKUlvE3_clEv, .-_ZZL13lambda_basicsvENKUlvE3_clEv
	.align 2
	.type	_ZZL13lambda_basicsvENKUlvE4_clEv, @function
_ZZL13lambda_basicsvENKUlvE4_clEv:
.LFB8016:
	.cfi_startproc
	pushq	%rbp	#
	.cfi_def_cfa_offset 16
	.cfi_offset 6, -16
	movq	%rsp, %rbp	#,
	.cfi_def_cfa_register 6
	movq	%rdi, -8(%rbp)	# __closure, __closure
# c++11.cpp:410:     {} // body
	nop
	popq	%rbp	#
	.cfi_def_cfa 7, 8
	ret
	.cfi_endproc
.LFE8016:
	.size	_ZZL13lambda_basicsvENKUlvE4_clEv, .-_ZZL13lambda_basicsvENKUlvE4_clEv
	.align 2
	.type	_ZZL13lambda_basicsvENKUliE5_clEi, @function
_ZZL13lambda_basicsvENKUliE5_clEi:
.LFB8019:
	.cfi_startproc
	pushq	%rbp	#
	.cfi_def_cfa_offset 16
	.cfi_offset 6, -16
	movq	%rsp, %rbp	#,
	.cfi_def_cfa_register 6
	movq	%rdi, -8(%rbp)	# __closure, __closure
	movl	%esi, -12(%rbp)	# a, a
# c++11.cpp:418:     { return c + a; } // body
	movq	-8(%rbp), %rax	# __closure, tmp90
	movl	(%rax), %edx	# __closure_3(D)->__c, _1
	movl	-12(%rbp), %eax	# a, tmp91
	addl	%edx, %eax	# _1, _5
	popq	%rbp	#
	.cfi_def_cfa 7, 8
	ret
	.cfi_endproc
.LFE8019:
	.size	_ZZL13lambda_basicsvENKUliE5_clEi, .-_ZZL13lambda_basicsvENKUliE5_clEi
	.align 2
	.type	_ZZL13lambda_basicsvENKUliE6_clEi, @function
_ZZL13lambda_basicsvENKUliE6_clEi:
.LFB8020:
	.cfi_startproc
	pushq	%rbp	#
	.cfi_def_cfa_offset 16
	.cfi_offset 6, -16
	movq	%rsp, %rbp	#,
	.cfi_def_cfa_register 6
	movq	%rdi, -8(%rbp)	# __closure, __closure
	movl	%esi, -12(%rbp)	# a, a
# c++11.cpp:426:     assert([](int a) { return a + 1; }(1) == 2);
	movl	-12(%rbp), %eax	# a, tmp89
	addl	$1, %eax	#, _2
	popq	%rbp	#
	.cfi_def_cfa 7, 8
	ret
	.cfi_endproc
.LFE8020:
	.size	_ZZL13lambda_basicsvENKUliE6_clEi, .-_ZZL13lambda_basicsvENKUliE6_clEi
	.section	.rodata
.LC45:
	.string	"pass(5) == 5"
.LC46:
	.string	"get_i() == 1"
.LC47:
	.string	"inc_get() == 2"
.LC48:
	.string	"inc_get() == 3"
.LC49:
	.string	"c == 4"
	.align 8
.LC50:
	.string	"[](int a) { return a + 1; }(1) == 2"
	.text
	.type	_ZL13lambda_basicsv, @function
_ZL13lambda_basicsv:
.LFB8004:
	.cfi_startproc
	pushq	%rbp	#
	.cfi_def_cfa_offset 16
	.cfi_offset 6, -16
	movq	%rsp, %rbp	#,
	.cfi_def_cfa_register 6
	subq	$32, %rsp	#,
# c++11.cpp:389:     closure();
	leaq	-11(%rbp), %rax	#, tmp96
	movq	%rax, %rdi	# tmp96,
	call	_ZZL13lambda_basicsvENKUlvE0_clEv	#
# c++11.cpp:393:     assert(pass(5) == 5);
	leaq	-12(%rbp), %rax	#, tmp97
	movl	$5, %esi	#,
	movq	%rax, %rdi	# tmp97,
	call	_ZZL13lambda_basicsvENKUliE1_clEi	#
# c++11.cpp:393:     assert(pass(5) == 5);
	cmpl	$5, %eax	#, _1
	je	.L297	#,
# c++11.cpp:393:     assert(pass(5) == 5);
	movl	$_ZZL13lambda_basicsvE19__PRETTY_FUNCTION__, %ecx	#,
	movl	$393, %edx	#,
	movl	$.LC1, %esi	#,
	movl	$.LC45, %edi	#,
	call	__assert_fail	#
.L297:
# c++11.cpp:396:     int c = 1;
	movl	$1, -16(%rbp)	#, c
# c++11.cpp:397:     auto get_i = [=]() { return c; };
	movl	-16(%rbp), %eax	# c, c.27_2
	movl	%eax, -20(%rbp)	# c.27_2, get_i.__c
# c++11.cpp:398:     assert(get_i() == 1);
	leaq	-20(%rbp), %rax	#, tmp98
	movq	%rax, %rdi	# tmp98,
	call	_ZZL13lambda_basicsvENKUlvE2_clEv	#
# c++11.cpp:398:     assert(get_i() == 1);
	cmpl	$1, %eax	#, _3
	je	.L298	#,
# c++11.cpp:398:     assert(get_i() == 1);
	movl	$_ZZL13lambda_basicsvE19__PRETTY_FUNCTION__, %ecx	#,
	movl	$398, %edx	#,
	movl	$.LC1, %esi	#,
	movl	$.LC46, %edi	#,
	call	__assert_fail	#
.L298:
# c++11.cpp:402:     auto inc_get = [&] { return ++c; };
	leaq	-16(%rbp), %rax	#, tmp99
	movq	%rax, -32(%rbp)	# tmp99, inc_get.__c
# c++11.cpp:403:     assert(inc_get() == 2);
	leaq	-32(%rbp), %rax	#, tmp100
	movq	%rax, %rdi	# tmp100,
	call	_ZZL13lambda_basicsvENKUlvE3_clEv	#
# c++11.cpp:403:     assert(inc_get() == 2);
	cmpl	$2, %eax	#, _4
	je	.L299	#,
# c++11.cpp:403:     assert(inc_get() == 2);
	movl	$_ZZL13lambda_basicsvE19__PRETTY_FUNCTION__, %ecx	#,
	movl	$403, %edx	#,
	movl	$.LC1, %esi	#,
	movl	$.LC47, %edi	#,
	call	__assert_fail	#
.L299:
# c++11.cpp:404:     assert(inc_get() == 3);
	leaq	-32(%rbp), %rax	#, tmp101
	movq	%rax, %rdi	# tmp101,
	call	_ZZL13lambda_basicsvENKUlvE3_clEv	#
# c++11.cpp:404:     assert(inc_get() == 3);
	cmpl	$3, %eax	#, _5
	je	.L300	#,
# c++11.cpp:404:     assert(inc_get() == 3);
	movl	$_ZZL13lambda_basicsvE19__PRETTY_FUNCTION__, %ecx	#,
	movl	$404, %edx	#,
	movl	$.LC1, %esi	#,
	movl	$.LC48, %edi	#,
	call	__assert_fail	#
.L300:
# c++11.cpp:411:     (); // call with arguments
	leaq	-9(%rbp), %rax	#, tmp102
	movq	%rax, %rdi	# tmp102,
	call	_ZZL13lambda_basicsvENKUlvE4_clEv	#
# c++11.cpp:419:     (1); // call with argument
	movl	-16(%rbp), %eax	# c, c.28_6
	movl	%eax, -8(%rbp)	# c.28_6, D.175520.__c
	leaq	-8(%rbp), %rax	#, tmp103
	movl	$1, %esi	#,
	movq	%rax, %rdi	# tmp103,
	call	_ZZL13lambda_basicsvENKUliE5_clEi	#
# c++11.cpp:414:     c = // result
	movl	%eax, -16(%rbp)	# _7, c
# c++11.cpp:420:     assert(c == 4);
	movl	-16(%rbp), %eax	# c, c.29_8
# c++11.cpp:420:     assert(c == 4);
	cmpl	$4, %eax	#, c.29_8
	je	.L301	#,
# c++11.cpp:420:     assert(c == 4);
	movl	$_ZZL13lambda_basicsvE19__PRETTY_FUNCTION__, %ecx	#,
	movl	$420, %edx	#,
	movl	$.LC1, %esi	#,
	movl	$.LC49, %edi	#,
	call	__assert_fail	#
.L301:
# c++11.cpp:426:     assert([](int a) { return a + 1; }(1) == 2);
	leaq	-1(%rbp), %rax	#, tmp104
	movl	$1, %esi	#,
	movq	%rax, %rdi	# tmp104,
	call	_ZZL13lambda_basicsvENKUliE6_clEi	#
# c++11.cpp:426:     assert([](int a) { return a + 1; }(1) == 2);
	cmpl	$2, %eax	#, _9
	je	.L303	#,
# c++11.cpp:426:     assert([](int a) { return a + 1; }(1) == 2);
	movl	$_ZZL13lambda_basicsvE19__PRETTY_FUNCTION__, %ecx	#,
	movl	$426, %edx	#,
	movl	$.LC1, %esi	#,
	movl	$.LC50, %edi	#,
	call	__assert_fail	#
.L303:
# c++11.cpp:430: }
	nop
	leave
	.cfi_def_cfa 7, 8
	ret
	.cfi_endproc
.LFE8004:
	.size	_ZL13lambda_basicsv, .-_ZL13lambda_basicsv
	.local	_ZL4glob
	.comm	_ZL4glob,4,4
	.align 2
	.type	_ZZL14lambda_capturevENKUlvE_clEv, @function
_ZZL14lambda_capturevENKUlvE_clEv:
.LFB8024:
	.cfi_startproc
	pushq	%rbp	#
	.cfi_def_cfa_offset 16
	.cfi_offset 6, -16
	movq	%rsp, %rbp	#,
	.cfi_def_cfa_register 6
	movq	%rdi, -8(%rbp)	# __closure, __closure
# c++11.cpp:440:     assert([=] { return i; }() == 2);
	movq	-8(%rbp), %rax	# __closure, tmp89
	movl	(%rax), %eax	# __closure_2(D)->__i, _3
	popq	%rbp	#
	.cfi_def_cfa 7, 8
	ret
	.cfi_endproc
.LFE8024:
	.size	_ZZL14lambda_capturevENKUlvE_clEv, .-_ZZL14lambda_capturevENKUlvE_clEv
	.align 2
	.type	_ZZL14lambda_capturevENKUliE0_clEi, @function
_ZZL14lambda_capturevENKUliE0_clEi:
.LFB8025:
	.cfi_startproc
	pushq	%rbp	#
	.cfi_def_cfa_offset 16
	.cfi_offset 6, -16
	movq	%rsp, %rbp	#,
	.cfi_def_cfa_register 6
	movq	%rdi, -8(%rbp)	# __closure, __closure
	movl	%esi, -12(%rbp)	# a, a
# c++11.cpp:443:     [&](int a) { i = a; }(3);
	movq	-8(%rbp), %rax	# __closure, tmp88
	movq	(%rax), %rax	# __closure_3(D)->__i, _1
	movl	-12(%rbp), %edx	# a, tmp89
	movl	%edx, (%rax)	# tmp89, *_1
	nop
	popq	%rbp	#
	.cfi_def_cfa 7, 8
	ret
	.cfi_endproc
.LFE8025:
	.size	_ZZL14lambda_capturevENKUliE0_clEi, .-_ZZL14lambda_capturevENKUliE0_clEi
	.align 2
	.type	_ZZL14lambda_capturevENKUlvE1_clEv, @function
_ZZL14lambda_capturevENKUlvE1_clEv:
.LFB8026:
	.cfi_startproc
	pushq	%rbp	#
	.cfi_def_cfa_offset 16
	.cfi_offset 6, -16
	movq	%rsp, %rbp	#,
	.cfi_def_cfa_register 6
	movq	%rdi, -8(%rbp)	# __closure, __closure
# c++11.cpp:448:     [i, &j]() { j = i; }();
	movq	-8(%rbp), %rax	# __closure, tmp89
	movq	8(%rax), %rax	# __closure_4(D)->__j, _1
	movq	-8(%rbp), %rdx	# __closure, tmp90
	movl	(%rdx), %edx	# __closure_4(D)->__i, _2
	movl	%edx, (%rax)	# _2, *_1
	nop
	popq	%rbp	#
	.cfi_def_cfa 7, 8
	ret
	.cfi_endproc
.LFE8026:
	.size	_ZZL14lambda_capturevENKUlvE1_clEv, .-_ZZL14lambda_capturevENKUlvE1_clEv
	.align 2
	.type	_ZZL14lambda_capturevENKUlvE2_clEv, @function
_ZZL14lambda_capturevENKUlvE2_clEv:
.LFB8027:
	.cfi_startproc
	pushq	%rbp	#
	.cfi_def_cfa_offset 16
	.cfi_offset 6, -16
	movq	%rsp, %rbp	#,
	.cfi_def_cfa_register 6
	movq	%rdi, -8(%rbp)	# __closure, __closure
# c++11.cpp:453:     [=, &j]() { j = i; }();
	movq	-8(%rbp), %rax	# __closure, tmp89
	movq	(%rax), %rax	# __closure_4(D)->__j, _1
	movq	-8(%rbp), %rdx	# __closure, tmp90
	movl	8(%rdx), %edx	# __closure_4(D)->__i, _2
	movl	%edx, (%rax)	# _2, *_1
	nop
	popq	%rbp	#
	.cfi_def_cfa 7, 8
	ret
	.cfi_endproc
.LFE8027:
	.size	_ZZL14lambda_capturevENKUlvE2_clEv, .-_ZZL14lambda_capturevENKUlvE2_clEv
	.align 2
	.type	_ZZL14lambda_capturevENKUlvE3_clEv, @function
_ZZL14lambda_capturevENKUlvE3_clEv:
.LFB8028:
	.cfi_startproc
	pushq	%rbp	#
	.cfi_def_cfa_offset 16
	.cfi_offset 6, -16
	movq	%rsp, %rbp	#,
	.cfi_def_cfa_register 6
	movq	%rdi, -8(%rbp)	# __closure, __closure
# c++11.cpp:458:     [&, i]() { j = i; }();
	movq	-8(%rbp), %rax	# __closure, tmp89
	movq	8(%rax), %rax	# __closure_4(D)->__j, _1
	movq	-8(%rbp), %rdx	# __closure, tmp90
	movl	(%rdx), %edx	# __closure_4(D)->__i, _2
	movl	%edx, (%rax)	# _2, *_1
	nop
	popq	%rbp	#
	.cfi_def_cfa 7, 8
	ret
	.cfi_endproc
.LFE8028:
	.size	_ZZL14lambda_capturevENKUlvE3_clEv, .-_ZZL14lambda_capturevENKUlvE3_clEv
	.align 2
	.type	_ZZL14lambda_capturevENKUlvE4_clEv, @function
_ZZL14lambda_capturevENKUlvE4_clEv:
.LFB8029:
	.cfi_startproc
	pushq	%rbp	#
	.cfi_def_cfa_offset 16
	.cfi_offset 6, -16
	movq	%rsp, %rbp	#,
	.cfi_def_cfa_register 6
	movq	%rdi, -8(%rbp)	# __closure, __closure
# c++11.cpp:462:     auto inc_global = []() { return ++glob; };
	movl	_ZL4glob(%rip), %eax	# glob, glob.43_1
	addl	$1, %eax	#, _2
	movl	%eax, _ZL4glob(%rip)	# _2, glob
	movl	_ZL4glob(%rip), %eax	# glob, _5
	popq	%rbp	#
	.cfi_def_cfa 7, 8
	ret
	.cfi_endproc
.LFE8029:
	.size	_ZZL14lambda_capturevENKUlvE4_clEv, .-_ZZL14lambda_capturevENKUlvE4_clEv
	.section	.rodata
.LC51:
	.string	"[=] { return i; }() == 2"
.LC52:
	.string	"j == i"
.LC53:
	.string	"inc_global() == 1"
.LC54:
	.string	"inc_global() == 2"
	.text
	.type	_ZL14lambda_capturev, @function
_ZL14lambda_capturev:
.LFB8023:
	.cfi_startproc
	pushq	%rbp	#
	.cfi_def_cfa_offset 16
	.cfi_offset 6, -16
	movq	%rsp, %rbp	#,
	.cfi_def_cfa_register 6
	subq	$80, %rsp	#,
# c++11.cpp:439:     int i = 2;
	movl	$2, -64(%rbp)	#, i
# c++11.cpp:440:     assert([=] { return i; }() == 2);
	movl	-64(%rbp), %eax	# i, i.30_1
	movl	%eax, -60(%rbp)	# i.30_1, D.175568.__i
	leaq	-60(%rbp), %rax	#, tmp105
	movq	%rax, %rdi	# tmp105,
	call	_ZZL14lambda_capturevENKUlvE_clEv	#
# c++11.cpp:440:     assert([=] { return i; }() == 2);
	cmpl	$2, %eax	#, _2
	je	.L313	#,
# c++11.cpp:440:     assert([=] { return i; }() == 2);
	movl	$_ZZL14lambda_capturevE19__PRETTY_FUNCTION__, %ecx	#,
	movl	$440, %edx	#,
	movl	$.LC1, %esi	#,
	movl	$.LC51, %edi	#,
	call	__assert_fail	#
.L313:
# c++11.cpp:443:     [&](int a) { i = a; }(3);
	leaq	-64(%rbp), %rax	#, tmp106
	movq	%rax, -56(%rbp)	# tmp106, D.175590.__i
	leaq	-56(%rbp), %rax	#, tmp107
	movl	$3, %esi	#,
	movq	%rax, %rdi	# tmp107,
	call	_ZZL14lambda_capturevENKUliE0_clEi	#
# c++11.cpp:444:     assert(i == 3);
	movl	-64(%rbp), %eax	# i, i.31_3
# c++11.cpp:444:     assert(i == 3);
	cmpl	$3, %eax	#, i.31_3
	je	.L314	#,
# c++11.cpp:444:     assert(i == 3);
	movl	$_ZZL14lambda_capturevE19__PRETTY_FUNCTION__, %ecx	#,
	movl	$444, %edx	#,
	movl	$.LC1, %esi	#,
	movl	$.LC35, %edi	#,
	call	__assert_fail	#
.L314:
# c++11.cpp:448:     [i, &j]() { j = i; }();
	movl	-64(%rbp), %eax	# i, i.32_4
	movl	%eax, -48(%rbp)	# i.32_4, D.175614.__i
	leaq	-68(%rbp), %rax	#, tmp108
	movq	%rax, -40(%rbp)	# tmp108, D.175614.__j
	leaq	-48(%rbp), %rax	#, tmp109
	movq	%rax, %rdi	# tmp109,
	call	_ZZL14lambda_capturevENKUlvE1_clEv	#
# c++11.cpp:449:     assert(j == i);
	movl	-68(%rbp), %edx	# j, j.33_5
	movl	-64(%rbp), %eax	# i, i.34_6
# c++11.cpp:449:     assert(j == i);
	cmpl	%eax, %edx	# i.34_6, j.33_5
	je	.L315	#,
# c++11.cpp:449:     assert(j == i);
	movl	$_ZZL14lambda_capturevE19__PRETTY_FUNCTION__, %ecx	#,
	movl	$449, %edx	#,
	movl	$.LC1, %esi	#,
	movl	$.LC52, %edi	#,
	call	__assert_fail	#
.L315:
# c++11.cpp:452:     i++;
	movl	-64(%rbp), %eax	# i, i.35_7
	addl	$1, %eax	#, _8
	movl	%eax, -64(%rbp)	# _8, i
# c++11.cpp:453:     [=, &j]() { j = i; }();
	leaq	-68(%rbp), %rax	#, tmp110
	movq	%rax, -32(%rbp)	# tmp110, D.175637.__j
	movl	-64(%rbp), %eax	# i, i.36_9
	movl	%eax, -24(%rbp)	# i.36_9, D.175637.__i
	leaq	-32(%rbp), %rax	#, tmp111
	movq	%rax, %rdi	# tmp111,
	call	_ZZL14lambda_capturevENKUlvE2_clEv	#
# c++11.cpp:454:     assert(j == i);
	movl	-68(%rbp), %edx	# j, j.37_10
	movl	-64(%rbp), %eax	# i, i.38_11
# c++11.cpp:454:     assert(j == i);
	cmpl	%eax, %edx	# i.38_11, j.37_10
	je	.L316	#,
# c++11.cpp:454:     assert(j == i);
	movl	$_ZZL14lambda_capturevE19__PRETTY_FUNCTION__, %ecx	#,
	movl	$454, %edx	#,
	movl	$.LC1, %esi	#,
	movl	$.LC52, %edi	#,
	call	__assert_fail	#
.L316:
# c++11.cpp:457:     i++;
	movl	-64(%rbp), %eax	# i, i.39_12
	addl	$1, %eax	#, _13
	movl	%eax, -64(%rbp)	# _13, i
# c++11.cpp:458:     [&, i]() { j = i; }();
	movl	-64(%rbp), %eax	# i, i.40_14
	movl	%eax, -16(%rbp)	# i.40_14, D.175660.__i
	leaq	-68(%rbp), %rax	#, tmp112
	movq	%rax, -8(%rbp)	# tmp112, D.175660.__j
	leaq	-16(%rbp), %rax	#, tmp113
	movq	%rax, %rdi	# tmp113,
	call	_ZZL14lambda_capturevENKUlvE3_clEv	#
# c++11.cpp:459:     assert(j == i);
	movl	-68(%rbp), %edx	# j, j.41_15
	movl	-64(%rbp), %eax	# i, i.42_16
# c++11.cpp:459:     assert(j == i);
	cmpl	%eax, %edx	# i.42_16, j.41_15
	je	.L317	#,
# c++11.cpp:459:     assert(j == i);
	movl	$_ZZL14lambda_capturevE19__PRETTY_FUNCTION__, %ecx	#,
	movl	$459, %edx	#,
	movl	$.LC1, %esi	#,
	movl	$.LC52, %edi	#,
	call	__assert_fail	#
.L317:
# c++11.cpp:463:     assert(inc_global() == 1);
	leaq	-69(%rbp), %rax	#, tmp114
	movq	%rax, %rdi	# tmp114,
	call	_ZZL14lambda_capturevENKUlvE4_clEv	#
# c++11.cpp:463:     assert(inc_global() == 1);
	cmpl	$1, %eax	#, _17
	je	.L318	#,
# c++11.cpp:463:     assert(inc_global() == 1);
	movl	$_ZZL14lambda_capturevE19__PRETTY_FUNCTION__, %ecx	#,
	movl	$463, %edx	#,
	movl	$.LC1, %esi	#,
	movl	$.LC53, %edi	#,
	call	__assert_fail	#
.L318:
# c++11.cpp:464:     assert(inc_global() == 2);
	leaq	-69(%rbp), %rax	#, tmp115
	movq	%rax, %rdi	# tmp115,
	call	_ZZL14lambda_capturevENKUlvE4_clEv	#
# c++11.cpp:464:     assert(inc_global() == 2);
	cmpl	$2, %eax	#, _18
	je	.L320	#,
# c++11.cpp:464:     assert(inc_global() == 2);
	movl	$_ZZL14lambda_capturevE19__PRETTY_FUNCTION__, %ecx	#,
	movl	$464, %edx	#,
	movl	$.LC1, %esi	#,
	movl	$.LC54, %edi	#,
	call	__assert_fail	#
.L320:
# c++11.cpp:465: }
	nop
	leave
	.cfi_def_cfa 7, 8
	ret
	.cfi_endproc
.LFE8023:
	.size	_ZL14lambda_capturev, .-_ZL14lambda_capturev
	.section	.text._ZSt3getILm3EJiPKcdRiiEERNSt13tuple_elementIXT_ESt5tupleIJDpT0_EEE4typeERS7_,"axG",@progbits,_ZSt3getILm3EJiPKcdRiiEERNSt13tuple_elementIXT_ESt5tupleIJDpT0_EEE4typeERS7_,comdat
	.weak	_ZSt3getILm3EJiPKcdRiiEERNSt13tuple_elementIXT_ESt5tupleIJDpT0_EEE4typeERS7_
	.type	_ZSt3getILm3EJiPKcdRiiEERNSt13tuple_elementIXT_ESt5tupleIJDpT0_EEE4typeERS7_, @function
_ZSt3getILm3EJiPKcdRiiEERNSt13tuple_elementIXT_ESt5tupleIJDpT0_EEE4typeERS7_:
.LFB8065:
	.cfi_startproc
	pushq	%rbp	#
	.cfi_def_cfa_offset 16
	.cfi_offset 6, -16
	movq	%rsp, %rbp	#,
	.cfi_def_cfa_register 6
	subq	$16, %rsp	#,
	movq	%rdi, -8(%rbp)	# __t, __t
# /opt/rh/devtoolset-7/root/usr/include/c++/7/tuple:1315:     { return std::__get_helper<__i>(__t); }
	movq	-8(%rbp), %rax	# __t, _1
	movq	%rax, %rdi	# _1,
	call	_ZSt12__get_helperILm3ERiJiEERT0_RSt11_Tuple_implIXT_EJS1_DpT1_EE	#
	leave
	.cfi_def_cfa 7, 8
	ret
	.cfi_endproc
.LFE8065:
	.size	_ZSt3getILm3EJiPKcdRiiEERNSt13tuple_elementIXT_ESt5tupleIJDpT0_EEE4typeERS7_, .-_ZSt3getILm3EJiPKcdRiiEERNSt13tuple_elementIXT_ESt5tupleIJDpT0_EEE4typeERS7_
	.section	.text._ZSt12__get_helperILm3ERiJiEERT0_RSt11_Tuple_implIXT_EJS1_DpT1_EE,"axG",@progbits,_ZSt12__get_helperILm3ERiJiEERT0_RSt11_Tuple_implIXT_EJS1_DpT1_EE,comdat
	.weak	_ZSt12__get_helperILm3ERiJiEERT0_RSt11_Tuple_implIXT_EJS1_DpT1_EE
	.type	_ZSt12__get_helperILm3ERiJiEERT0_RSt11_Tuple_implIXT_EJS1_DpT1_EE, @function
_ZSt12__get_helperILm3ERiJiEERT0_RSt11_Tuple_implIXT_EJS1_DpT1_EE:
.LFB8066:
	.cfi_startproc
	pushq	%rbp	#
	.cfi_def_cfa_offset 16
	.cfi_offset 6, -16
	movq	%rsp, %rbp	#,
	.cfi_def_cfa_register 6
	subq	$16, %rsp	#,
	movq	%rdi, -8(%rbp)	# __t, __t
# /opt/rh/devtoolset-7/root/usr/include/c++/7/tuple:1304:     { return _Tuple_impl<__i, _Head, _Tail...>::_M_head(__t); }
	movq	-8(%rbp), %rax	# __t, tmp89
	movq	%rax, %rdi	# tmp89,
	call	_ZNSt11_Tuple_implILm3EJRiiEE7_M_headERS1_	#
	leave
	.cfi_def_cfa 7, 8
	ret
	.cfi_endproc
.LFE8066:
	.size	_ZSt12__get_helperILm3ERiJiEERT0_RSt11_Tuple_implIXT_EJS1_DpT1_EE, .-_ZSt12__get_helperILm3ERiJiEERT0_RSt11_Tuple_implIXT_EJS1_DpT1_EE
	.section	.text._ZNSt11_Tuple_implILm3EJRiiEE7_M_headERS1_,"axG",@progbits,_ZNSt11_Tuple_implILm3EJRiiEE7_M_headERS1_,comdat
	.weak	_ZNSt11_Tuple_implILm3EJRiiEE7_M_headERS1_
	.type	_ZNSt11_Tuple_implILm3EJRiiEE7_M_headERS1_, @function
_ZNSt11_Tuple_implILm3EJRiiEE7_M_headERS1_:
.LFB8067:
	.cfi_startproc
	pushq	%rbp	#
	.cfi_def_cfa_offset 16
	.cfi_offset 6, -16
	movq	%rsp, %rbp	#,
	.cfi_def_cfa_register 6
	subq	$16, %rsp	#,
	movq	%rdi, -8(%rbp)	# __t, __t
# /opt/rh/devtoolset-7/root/usr/include/c++/7/tuple:195:       _M_head(_Tuple_impl& __t) noexcept { return _Base::_M_head(__t); }
	movq	-8(%rbp), %rax	# __t, tmp90
	addq	$8, %rax	#, _1
	movq	%rax, %rdi	# _1,
	call	_ZNSt10_Head_baseILm3ERiLb0EE7_M_headERS1_	#
	leave
	.cfi_def_cfa 7, 8
	ret
	.cfi_endproc
.LFE8067:
	.size	_ZNSt11_Tuple_implILm3EJRiiEE7_M_headERS1_, .-_ZNSt11_Tuple_implILm3EJRiiEE7_M_headERS1_
	.section	.text._ZNSt10_Head_baseILm3ERiLb0EE7_M_headERS1_,"axG",@progbits,_ZNSt10_Head_baseILm3ERiLb0EE7_M_headERS1_,comdat
	.weak	_ZNSt10_Head_baseILm3ERiLb0EE7_M_headERS1_
	.type	_ZNSt10_Head_baseILm3ERiLb0EE7_M_headERS1_, @function
_ZNSt10_Head_baseILm3ERiLb0EE7_M_headERS1_:
.LFB8068:
	.cfi_startproc
	pushq	%rbp	#
	.cfi_def_cfa_offset 16
	.cfi_offset 6, -16
	movq	%rsp, %rbp	#,
	.cfi_def_cfa_register 6
	movq	%rdi, -8(%rbp)	# __b, __b
# /opt/rh/devtoolset-7/root/usr/include/c++/7/tuple:160:       _M_head(_Head_base& __b) noexcept { return __b._M_head_impl; }
	movq	-8(%rbp), %rax	# __b, tmp89
	movq	(%rax), %rax	# __b_2(D)->_M_head_impl, _3
	popq	%rbp	#
	.cfi_def_cfa 7, 8
	ret
	.cfi_endproc
.LFE8068:
	.size	_ZNSt10_Head_baseILm3ERiLb0EE7_M_headERS1_, .-_ZNSt10_Head_baseILm3ERiLb0EE7_M_headERS1_
	.section	.text._ZSt3getILm4EJiPKcdRiiEERNSt13tuple_elementIXT_ESt5tupleIJDpT0_EEE4typeERS7_,"axG",@progbits,_ZSt3getILm4EJiPKcdRiiEERNSt13tuple_elementIXT_ESt5tupleIJDpT0_EEE4typeERS7_,comdat
	.weak	_ZSt3getILm4EJiPKcdRiiEERNSt13tuple_elementIXT_ESt5tupleIJDpT0_EEE4typeERS7_
	.type	_ZSt3getILm4EJiPKcdRiiEERNSt13tuple_elementIXT_ESt5tupleIJDpT0_EEE4typeERS7_, @function
_ZSt3getILm4EJiPKcdRiiEERNSt13tuple_elementIXT_ESt5tupleIJDpT0_EEE4typeERS7_:
.LFB8069:
	.cfi_startproc
	pushq	%rbp	#
	.cfi_def_cfa_offset 16
	.cfi_offset 6, -16
	movq	%rsp, %rbp	#,
	.cfi_def_cfa_register 6
	subq	$16, %rsp	#,
	movq	%rdi, -8(%rbp)	# __t, __t
# /opt/rh/devtoolset-7/root/usr/include/c++/7/tuple:1315:     { return std::__get_helper<__i>(__t); }
	movq	-8(%rbp), %rax	# __t, _1
	movq	%rax, %rdi	# _1,
	call	_ZSt12__get_helperILm4EiJEERT0_RSt11_Tuple_implIXT_EJS0_DpT1_EE	#
	leave
	.cfi_def_cfa 7, 8
	ret
	.cfi_endproc
.LFE8069:
	.size	_ZSt3getILm4EJiPKcdRiiEERNSt13tuple_elementIXT_ESt5tupleIJDpT0_EEE4typeERS7_, .-_ZSt3getILm4EJiPKcdRiiEERNSt13tuple_elementIXT_ESt5tupleIJDpT0_EEE4typeERS7_
	.section	.text._ZSt12__get_helperILm4EiJEERT0_RSt11_Tuple_implIXT_EJS0_DpT1_EE,"axG",@progbits,_ZSt12__get_helperILm4EiJEERT0_RSt11_Tuple_implIXT_EJS0_DpT1_EE,comdat
	.weak	_ZSt12__get_helperILm4EiJEERT0_RSt11_Tuple_implIXT_EJS0_DpT1_EE
	.type	_ZSt12__get_helperILm4EiJEERT0_RSt11_Tuple_implIXT_EJS0_DpT1_EE, @function
_ZSt12__get_helperILm4EiJEERT0_RSt11_Tuple_implIXT_EJS0_DpT1_EE:
.LFB8070:
	.cfi_startproc
	pushq	%rbp	#
	.cfi_def_cfa_offset 16
	.cfi_offset 6, -16
	movq	%rsp, %rbp	#,
	.cfi_def_cfa_register 6
	subq	$16, %rsp	#,
	movq	%rdi, -8(%rbp)	# __t, __t
# /opt/rh/devtoolset-7/root/usr/include/c++/7/tuple:1304:     { return _Tuple_impl<__i, _Head, _Tail...>::_M_head(__t); }
	movq	-8(%rbp), %rax	# __t, tmp89
	movq	%rax, %rdi	# tmp89,
	call	_ZNSt11_Tuple_implILm4EJiEE7_M_headERS0_	#
	leave
	.cfi_def_cfa 7, 8
	ret
	.cfi_endproc
.LFE8070:
	.size	_ZSt12__get_helperILm4EiJEERT0_RSt11_Tuple_implIXT_EJS0_DpT1_EE, .-_ZSt12__get_helperILm4EiJEERT0_RSt11_Tuple_implIXT_EJS0_DpT1_EE
	.section	.text._ZNSt11_Tuple_implILm4EJiEE7_M_headERS0_,"axG",@progbits,_ZNSt11_Tuple_implILm4EJiEE7_M_headERS0_,comdat
	.weak	_ZNSt11_Tuple_implILm4EJiEE7_M_headERS0_
	.type	_ZNSt11_Tuple_implILm4EJiEE7_M_headERS0_, @function
_ZNSt11_Tuple_implILm4EJiEE7_M_headERS0_:
.LFB8071:
	.cfi_startproc
	pushq	%rbp	#
	.cfi_def_cfa_offset 16
	.cfi_offset 6, -16
	movq	%rsp, %rbp	#,
	.cfi_def_cfa_register 6
	subq	$16, %rsp	#,
	movq	%rdi, -8(%rbp)	# __t, __t
# /opt/rh/devtoolset-7/root/usr/include/c++/7/tuple:351:       _M_head(_Tuple_impl& __t) noexcept { return _Base::_M_head(__t); }
	movq	-8(%rbp), %rax	# __t, _1
	movq	%rax, %rdi	# _1,
	call	_ZNSt10_Head_baseILm4EiLb0EE7_M_headERS0_	#
	leave
	.cfi_def_cfa 7, 8
	ret
	.cfi_endproc
.LFE8071:
	.size	_ZNSt11_Tuple_implILm4EJiEE7_M_headERS0_, .-_ZNSt11_Tuple_implILm4EJiEE7_M_headERS0_
	.section	.text._ZNSt10_Head_baseILm4EiLb0EE7_M_headERS0_,"axG",@progbits,_ZNSt10_Head_baseILm4EiLb0EE7_M_headERS0_,comdat
	.weak	_ZNSt10_Head_baseILm4EiLb0EE7_M_headERS0_
	.type	_ZNSt10_Head_baseILm4EiLb0EE7_M_headERS0_, @function
_ZNSt10_Head_baseILm4EiLb0EE7_M_headERS0_:
.LFB8072:
	.cfi_startproc
	pushq	%rbp	#
	.cfi_def_cfa_offset 16
	.cfi_offset 6, -16
	movq	%rsp, %rbp	#,
	.cfi_def_cfa_register 6
	movq	%rdi, -8(%rbp)	# __b, __b
# /opt/rh/devtoolset-7/root/usr/include/c++/7/tuple:160:       _M_head(_Head_base& __b) noexcept { return __b._M_head_impl; }
	movq	-8(%rbp), %rax	# __b, _2
	popq	%rbp	#
	.cfi_def_cfa 7, 8
	ret
	.cfi_endproc
.LFE8072:
	.size	_ZNSt10_Head_baseILm4EiLb0EE7_M_headERS0_, .-_ZNSt10_Head_baseILm4EiLb0EE7_M_headERS0_
	.section	.rodata
.LC55:
	.string	"bounds.first == 1"
.LC56:
	.string	"bounds.second == 3"
.LC57:
	.string	"min == 1"
.LC59:
	.string	"one"
.LC60:
	.string	"get<3>(t) == 2"
.LC61:
	.string	"get<4>(t) == 1"
	.text
	.globl	_Z8utils_11v
	.type	_Z8utils_11v, @function
_Z8utils_11v:
.LFB8032:
	.cfi_startproc
	pushq	%rbp	#
	.cfi_def_cfa_offset 16
	.cfi_offset 6, -16
	movq	%rsp, %rbp	#,
	.cfi_def_cfa_register 6
	pushq	%rbx	#
	subq	$120, %rsp	#,
	.cfi_offset 3, -24
# c++11.cpp:471:     pair<int, int> bounds = minmax({3, 2, 1});
	movl	$._126, %eax	#, D.256477
	movl	$3, %edx	#, D.256477
	movq	%rax, %rcx	# D.256477, tmp95
	movq	%rdx, %rbx	# D.256477,
	movq	%rdx, %rax	#, tmp98
	movq	%rcx, %rdi	# tmp97,
	movq	%rax, %rsi	# tmp98,
	call	_ZSt6minmaxIiESt4pairIT_S1_ESt16initializer_listIS1_E	#
	movq	%rax, -72(%rbp)	# tmp100, bounds
# c++11.cpp:472:     assert(bounds.first == 1);
	movl	-72(%rbp), %eax	# bounds.first, _1
# c++11.cpp:472:     assert(bounds.first == 1);
	cmpl	$1, %eax	#, _1
	je	.L338	#,
# c++11.cpp:472:     assert(bounds.first == 1);
	movl	$_ZZ8utils_11vE19__PRETTY_FUNCTION__, %ecx	#,
	movl	$472, %edx	#,
	movl	$.LC1, %esi	#,
	movl	$.LC55, %edi	#,
	call	__assert_fail	#
.L338:
# c++11.cpp:473:     assert(bounds.second == 3);
	movl	-68(%rbp), %eax	# bounds.second, _2
# c++11.cpp:473:     assert(bounds.second == 3);
	cmpl	$3, %eax	#, _2
	je	.L339	#,
# c++11.cpp:473:     assert(bounds.second == 3);
	movl	$_ZZ8utils_11vE19__PRETTY_FUNCTION__, %ecx	#,
	movl	$473, %edx	#,
	movl	$.LC1, %esi	#,
	movl	$.LC56, %edi	#,
	call	__assert_fail	#
.L339:
# c++11.cpp:475:     tie(min, max) = bounds;
	leaq	-64(%rbp), %rax	#, tmp101
	leaq	-80(%rbp), %rdx	#, tmp102
	leaq	-76(%rbp), %rcx	#, tmp103
	movq	%rcx, %rsi	# tmp103,
	movq	%rax, %rdi	# tmp101,
	call	_ZSt3tieIJiiEESt5tupleIJDpRT_EES3_	#
	leaq	-72(%rbp), %rdx	#, tmp104
	leaq	-64(%rbp), %rax	#, tmp105
	movq	%rdx, %rsi	# tmp104,
	movq	%rax, %rdi	# tmp105,
	call	_ZNSt5tupleIJRiS0_EEaSIiiEERS1_RKSt4pairIT_T0_E	#
# c++11.cpp:476:     assert(min == 1);
	movl	-76(%rbp), %eax	# min, min.44_3
# c++11.cpp:476:     assert(min == 1);
	cmpl	$1, %eax	#, min.44_3
	je	.L340	#,
# c++11.cpp:476:     assert(min == 1);
	movl	$_ZZ8utils_11vE19__PRETTY_FUNCTION__, %ecx	#,
	movl	$476, %edx	#,
	movl	$.LC1, %esi	#,
	movl	$.LC57, %edi	#,
	call	__assert_fail	#
.L340:
# c++11.cpp:477:     int n = 1;
	movl	$1, -84(%rbp)	#, n
# c++11.cpp:478:     auto t = make_tuple(0, "one", 3.14, ref(n), n);
	leaq	-84(%rbp), %rax	#, tmp106
	movq	%rax, %rdi	# tmp106,
	call	_ZSt3refIiESt17reference_wrapperIT_ERS1_	#
	movq	%rax, -40(%rbp)	# tmp108, D.179944
	movsd	.LC58(%rip), %xmm0	#, tmp109
	movsd	%xmm0, -32(%rbp)	# tmp109, D.180053
	movl	$0, -20(%rbp)	#, D.180052
	leaq	-128(%rbp), %rax	#, tmp110
	leaq	-84(%rbp), %rdi	#, tmp111
	leaq	-40(%rbp), %rcx	#, tmp112
	leaq	-32(%rbp), %rdx	#, tmp113
	leaq	-20(%rbp), %rsi	#, tmp114
	movq	%rdi, %r9	# tmp111,
	movq	%rcx, %r8	# tmp112,
	movq	%rdx, %rcx	# tmp113,
	movl	$.LC59, %edx	#,
	movq	%rax, %rdi	# tmp110,
	call	_ZSt10make_tupleIJiRA4_KcdSt17reference_wrapperIiERiEESt5tupleIJDpNSt17__decay_and_stripIT_E6__typeEEEDpOS8_	#
# c++11.cpp:479:     n = 2;
	movl	$2, -84(%rbp)	#, n
# c++11.cpp:483:     assert(get<3>(t) == 2);
	leaq	-128(%rbp), %rax	#, tmp115
	movq	%rax, %rdi	# tmp115,
	call	_ZSt3getILm3EJiPKcdRiiEERNSt13tuple_elementIXT_ESt5tupleIJDpT0_EEE4typeERS7_	#
	movl	(%rax), %eax	# *_4, _5
# c++11.cpp:483:     assert(get<3>(t) == 2);
	cmpl	$2, %eax	#, _5
	je	.L341	#,
# c++11.cpp:483:     assert(get<3>(t) == 2);
	movl	$_ZZ8utils_11vE19__PRETTY_FUNCTION__, %ecx	#,
	movl	$483, %edx	#,
	movl	$.LC1, %esi	#,
	movl	$.LC60, %edi	#,
	call	__assert_fail	#
.L341:
# c++11.cpp:484:     assert(get<4>(t) == 1);
	leaq	-128(%rbp), %rax	#, tmp116
	movq	%rax, %rdi	# tmp116,
	call	_ZSt3getILm4EJiPKcdRiiEERNSt13tuple_elementIXT_ESt5tupleIJDpT0_EEE4typeERS7_	#
	movl	(%rax), %eax	# *_6, _7
# c++11.cpp:484:     assert(get<4>(t) == 1);
	cmpl	$1, %eax	#, _7
	je	.L343	#,
# c++11.cpp:484:     assert(get<4>(t) == 1);
	movl	$_ZZ8utils_11vE19__PRETTY_FUNCTION__, %ecx	#,
	movl	$484, %edx	#,
	movl	$.LC1, %esi	#,
	movl	$.LC61, %edi	#,
	call	__assert_fail	#
.L343:
# c++11.cpp:485: }
	nop
	addq	$120, %rsp	#,
	popq	%rbx	#
	popq	%rbp	#
	.cfi_def_cfa 7, 8
	ret
	.cfi_endproc
.LFE8032:
	.size	_Z8utils_11v, .-_Z8utils_11v
	.section	.text._ZNSt4listIiSaIiEED2Ev,"axG",@progbits,_ZNSt4listIiSaIiEED5Ev,comdat
	.align 2
	.weak	_ZNSt4listIiSaIiEED2Ev
	.type	_ZNSt4listIiSaIiEED2Ev, @function
_ZNSt4listIiSaIiEED2Ev:
.LFB8076:
	.cfi_startproc
	pushq	%rbp	#
	.cfi_def_cfa_offset 16
	.cfi_offset 6, -16
	movq	%rsp, %rbp	#,
	.cfi_def_cfa_register 6
	subq	$16, %rsp	#,
	movq	%rdi, -8(%rbp)	# this, this
# /opt/rh/devtoolset-7/root/usr/include/c++/7/bits/stl_list.h:733:       ~list() = default;
	movq	-8(%rbp), %rax	# this, _1
	movq	%rax, %rdi	# _1,
	call	_ZNSt10_List_baseIiSaIiEED2Ev	#
	nop
	leave
	.cfi_def_cfa 7, 8
	ret
	.cfi_endproc
.LFE8076:
	.size	_ZNSt4listIiSaIiEED2Ev, .-_ZNSt4listIiSaIiEED2Ev
	.weak	_ZNSt4listIiSaIiEED1Ev
	.set	_ZNSt4listIiSaIiEED1Ev,_ZNSt4listIiSaIiEED2Ev
	.section	.text._ZNSt5stackIiSt5dequeIiSaIiEEED2Ev,"axG",@progbits,_ZNSt5stackIiSt5dequeIiSaIiEEED5Ev,comdat
	.align 2
	.weak	_ZNSt5stackIiSt5dequeIiSaIiEEED2Ev
	.type	_ZNSt5stackIiSt5dequeIiSaIiEEED2Ev, @function
_ZNSt5stackIiSt5dequeIiSaIiEEED2Ev:
.LFB8079:
	.cfi_startproc
	pushq	%rbp	#
	.cfi_def_cfa_offset 16
	.cfi_offset 6, -16
	movq	%rsp, %rbp	#,
	.cfi_def_cfa_register 6
	subq	$16, %rsp	#,
	movq	%rdi, -8(%rbp)	# this, this
# /opt/rh/devtoolset-7/root/usr/include/c++/7/bits/stl_stack.h:99:     class stack
	movq	-8(%rbp), %rax	# this, _1
	movq	%rax, %rdi	# _1,
	call	_ZNSt5dequeIiSaIiEED1Ev	#
	nop
	leave
	.cfi_def_cfa 7, 8
	ret
	.cfi_endproc
.LFE8079:
	.size	_ZNSt5stackIiSt5dequeIiSaIiEEED2Ev, .-_ZNSt5stackIiSt5dequeIiSaIiEEED2Ev
	.weak	_ZNSt5stackIiSt5dequeIiSaIiEEED1Ev
	.set	_ZNSt5stackIiSt5dequeIiSaIiEEED1Ev,_ZNSt5stackIiSt5dequeIiSaIiEEED2Ev
	.section	.rodata
.LC62:
	.string	"v.data()[2] == 3"
.LC63:
	.string	"v.front() == 0"
.LC64:
	.string	"v.back() == 4"
.LC65:
	.string	"*(next(fl.begin())) == 3"
.LC66:
	.string	"fl.front() == 3"
.LC67:
	.string	"l.front() == 2"
	.text
	.globl	_Z12container_11v
	.type	_Z12container_11v, @function
_Z12container_11v:
.LFB8074:
	.cfi_startproc
	.cfi_personality 0x3,__gxx_personality_v0
	.cfi_lsda 0x3,.LLSDA8074
	pushq	%rbp	#
	.cfi_def_cfa_offset 16
	.cfi_offset 6, -16
	movq	%rsp, %rbp	#,
	.cfi_def_cfa_register 6
	pushq	%r13	#
	pushq	%r12	#
	pushq	%rbx	#
	subq	$360, %rsp	#,
	.cfi_offset 13, -24
	.cfi_offset 12, -32
	.cfi_offset 3, -40
# c++11.cpp:505:     vector<int> v = { 1, 2, 3 };
	movl	$._127, %r12d	#, D.256612
	movl	$3, %r13d	#, D.256612
	leaq	-85(%rbp), %rax	#, tmp111
	movq	%rax, %rdi	# tmp111,
	call	_ZNSaIiEC1Ev	#
	leaq	-85(%rbp), %rdx	#, tmp112
	movq	%r12, %rsi	# D.256612, tmp113
	movq	%r13, %rdi	# D.256612,
	movq	%r12, %rcx	# D.256612, tmp114
	movq	%r13, %rbx	# D.256612,
	movq	%rbx, %rdi	#, tmp116
	leaq	-112(%rbp), %rax	#, tmp117
	movq	%rdx, %rcx	# tmp112,
	movq	%rdi, %rdx	# tmp116,
	movq	%rax, %rdi	# tmp117,
.LEHB17:
	call	_ZNSt6vectorIiSaIiEEC1ESt16initializer_listIiERKS0_	#
.LEHE17:
	leaq	-85(%rbp), %rax	#, tmp118
	movq	%rax, %rdi	# tmp118,
	call	_ZNSaIiED1Ev	#
# c++11.cpp:506:     assert(v.data()[2] == 3);
	leaq	-112(%rbp), %rax	#, tmp119
	movq	%rax, %rdi	# tmp119,
	call	_ZNSt6vectorIiSaIiEE4dataEv	#
	addq	$8, %rax	#, _2
	movl	(%rax), %eax	# *_2, _3
# c++11.cpp:506:     assert(v.data()[2] == 3);
	cmpl	$3, %eax	#, _3
	je	.L347	#,
# c++11.cpp:506:     assert(v.data()[2] == 3);
	movl	$_ZZ12container_11vE19__PRETTY_FUNCTION__, %ecx	#,
	movl	$506, %edx	#,
	movl	$.LC1, %esi	#,
	movl	$.LC62, %edi	#,
	call	__assert_fail	#
.L347:
# c++11.cpp:508:     v.shrink_to_fit();
	leaq	-112(%rbp), %rax	#, tmp120
	movq	%rax, %rdi	# tmp120,
.LEHB18:
	call	_ZNSt6vectorIiSaIiEE13shrink_to_fitEv	#
# c++11.cpp:510:     v.emplace(v.cbegin(), 0);
	movl	$0, -84(%rbp)	#, D.186752
	leaq	-112(%rbp), %rax	#, tmp121
	movq	%rax, %rdi	# tmp121,
	call	_ZNKSt6vectorIiSaIiEE6cbeginEv	#
	movq	%rax, %rcx	#, D.256616
	leaq	-84(%rbp), %rdx	#, tmp122
	leaq	-112(%rbp), %rax	#, tmp123
	movq	%rcx, %rsi	# D.256616,
	movq	%rax, %rdi	# tmp123,
	call	_ZNSt6vectorIiSaIiEE7emplaceIJiEEEN9__gnu_cxx17__normal_iteratorIPiS1_EENS4_IPKiS1_EEDpOT_	#
# c++11.cpp:511:     assert(v.front() == 0);
	leaq	-112(%rbp), %rax	#, tmp124
	movq	%rax, %rdi	# tmp124,
	call	_ZNSt6vectorIiSaIiEE5frontEv	#
	movl	(%rax), %eax	# *_4, _5
# c++11.cpp:511:     assert(v.front() == 0);
	testl	%eax, %eax	# _5
	je	.L348	#,
# c++11.cpp:511:     assert(v.front() == 0);
	movl	$_ZZ12container_11vE19__PRETTY_FUNCTION__, %ecx	#,
	movl	$511, %edx	#,
	movl	$.LC1, %esi	#,
	movl	$.LC63, %edi	#,
	call	__assert_fail	#
.L348:
# c++11.cpp:513:     v.emplace_back(4);
	movl	$4, -80(%rbp)	#, D.186766
	leaq	-80(%rbp), %rdx	#, tmp125
	leaq	-112(%rbp), %rax	#, tmp126
	movq	%rdx, %rsi	# tmp125,
	movq	%rax, %rdi	# tmp126,
	call	_ZNSt6vectorIiSaIiEE12emplace_backIJiEEEvDpOT_	#
.LEHE18:
# c++11.cpp:514:     assert(v.back() == 4);
	leaq	-112(%rbp), %rax	#, tmp127
	movq	%rax, %rdi	# tmp127,
	call	_ZNSt6vectorIiSaIiEE4backEv	#
	movl	(%rax), %eax	# *_6, _7
# c++11.cpp:514:     assert(v.back() == 4);
	cmpl	$4, %eax	#, _7
	je	.L349	#,
# c++11.cpp:514:     assert(v.back() == 4);
	movl	$_ZZ12container_11vE19__PRETTY_FUNCTION__, %ecx	#,
	movl	$514, %edx	#,
	movl	$.LC1, %esi	#,
	movl	$.LC64, %edi	#,
	call	__assert_fail	#
.L349:
# c++11.cpp:517:     swap(a1, a2);
	leaq	-120(%rbp), %rdx	#, tmp128
	leaq	-116(%rbp), %rax	#, tmp129
	movq	%rdx, %rsi	# tmp128,
	movq	%rax, %rdi	# tmp129,
	call	_ZSt4swapIiLm1EEvRSt5arrayIT_XT0_EES3_	#
# c++11.cpp:520:     forward_list<int> fl;
	leaq	-128(%rbp), %rax	#, tmp130
	movq	%rax, %rdi	# tmp130,
	call	_ZNSt12forward_listIiSaIiEEC1Ev	#
# c++11.cpp:521:     test_list_container(fl);
	leaq	-128(%rbp), %rax	#, tmp131
	movq	%rax, %rdi	# tmp131,
.LEHB19:
	call	_Z19test_list_containerISt12forward_listIiSaIiEEEvRT_	#
# c++11.cpp:522:     fl.insert_after(fl.cbegin(), 3);
	movl	$3, -76(%rbp)	#, D.187996
	leaq	-128(%rbp), %rax	#, tmp132
	movq	%rax, %rdi	# tmp132,
	call	_ZNKSt12forward_listIiSaIiEE6cbeginEv	#
	movq	%rax, %rcx	#, D.256623
	leaq	-76(%rbp), %rdx	#, tmp133
	leaq	-128(%rbp), %rax	#, tmp134
	movq	%rcx, %rsi	# D.256623,
	movq	%rax, %rdi	# tmp134,
	call	_ZNSt12forward_listIiSaIiEE12insert_afterESt24_Fwd_list_const_iteratorIiEOi	#
# c++11.cpp:523:     assert(*(next(fl.begin())) == 3);
	leaq	-128(%rbp), %rax	#, tmp135
	movq	%rax, %rdi	# tmp135,
	call	_ZNSt12forward_listIiSaIiEE5beginEv	#
	movl	$1, %esi	#,
	movq	%rax, %rdi	# D.256624,
	call	_ZSt4nextISt18_Fwd_list_iteratorIiEET_S2_NSt15iterator_traitsIS2_E15difference_typeE	#
# c++11.cpp:523:     assert(*(next(fl.begin())) == 3);
	movq	%rax, -72(%rbp)	# tmp137, D.188022
	leaq	-72(%rbp), %rax	#, tmp138
	movq	%rax, %rdi	# tmp138,
	call	_ZNKSt18_Fwd_list_iteratorIiEdeEv	#
	movl	(%rax), %eax	# *_8, _9
# c++11.cpp:523:     assert(*(next(fl.begin())) == 3);
	cmpl	$3, %eax	#, _9
	je	.L350	#,
	movl	$_ZZ12container_11vE19__PRETTY_FUNCTION__, %ecx	#,
	movl	$523, %edx	#,
	movl	$.LC1, %esi	#,
	movl	$.LC65, %edi	#,
	call	__assert_fail	#
.L350:
# c++11.cpp:524:     fl.erase_after(fl.cbefore_begin()); // like fl.pop_front();
	leaq	-128(%rbp), %rax	#, tmp139
	movq	%rax, %rdi	# tmp139,
	call	_ZNKSt12forward_listIiSaIiEE13cbefore_beginEv	#
	movq	%rax, %rdx	#, D.256628
	leaq	-128(%rbp), %rax	#, tmp140
	movq	%rdx, %rsi	# D.256628,
	movq	%rax, %rdi	# tmp140,
	call	_ZNSt12forward_listIiSaIiEE11erase_afterESt24_Fwd_list_const_iteratorIiE	#
# c++11.cpp:525:     assert(fl.front() == 3);
	leaq	-128(%rbp), %rax	#, tmp141
	movq	%rax, %rdi	# tmp141,
	call	_ZNSt12forward_listIiSaIiEE5frontEv	#
	movl	(%rax), %eax	# *_10, _11
# c++11.cpp:525:     assert(fl.front() == 3);
	cmpl	$3, %eax	#, _11
	je	.L351	#,
# c++11.cpp:525:     assert(fl.front() == 3);
	movl	$_ZZ12container_11vE19__PRETTY_FUNCTION__, %ecx	#,
	movl	$525, %edx	#,
	movl	$.LC1, %esi	#,
	movl	$.LC66, %edi	#,
	call	__assert_fail	#
.L351:
# c++11.cpp:526:     fl.pop_front();
	leaq	-128(%rbp), %rax	#, tmp142
	movq	%rax, %rdi	# tmp142,
	call	_ZNSt12forward_listIiSaIiEE9pop_frontEv	#
.LEHE19:
# c++11.cpp:528:     list<int> l;
	leaq	-144(%rbp), %rax	#, tmp143
	movq	%rax, %rdi	# tmp143,
	call	_ZNSt4listIiSaIiEEC1Ev	#
# c++11.cpp:529:     test_list_container(l);
	leaq	-144(%rbp), %rax	#, tmp144
	movq	%rax, %rdi	# tmp144,
.LEHB20:
	call	_Z19test_list_containerISt4listIiSaIiEEEvRT_	#
# c++11.cpp:530:     l.emplace_back(0);
	movl	$0, -64(%rbp)	#, D.189093
	leaq	-64(%rbp), %rdx	#, tmp145
	leaq	-144(%rbp), %rax	#, tmp146
	movq	%rdx, %rsi	# tmp145,
	movq	%rax, %rdi	# tmp146,
	call	_ZNSt4listIiSaIiEE12emplace_backIJiEEEvDpOT_	#
# c++11.cpp:531:     l.emplace(l.begin(), 2);
	movl	$2, -60(%rbp)	#, D.189240
	leaq	-144(%rbp), %rax	#, tmp147
	movq	%rax, %rdi	# tmp147,
	call	_ZNSt4listIiSaIiEE5beginEv	#
	movq	%rax, -48(%rbp)	# tmp149, D.189141
	leaq	-48(%rbp), %rdx	#, tmp150
	leaq	-56(%rbp), %rax	#, tmp151
	movq	%rdx, %rsi	# tmp150,
	movq	%rax, %rdi	# tmp151,
	call	_ZNSt20_List_const_iteratorIiEC1ERKSt14_List_iteratorIiE	#
	leaq	-60(%rbp), %rdx	#, tmp152
	movq	-56(%rbp), %rcx	# D.189230, tmp153
	leaq	-144(%rbp), %rax	#, tmp154
	movq	%rcx, %rsi	# tmp153,
	movq	%rax, %rdi	# tmp154,
	call	_ZNSt4listIiSaIiEE7emplaceIJiEEESt14_List_iteratorIiESt20_List_const_iteratorIiEDpOT_	#
# c++11.cpp:532:     assert(l.front() == 2);
	leaq	-144(%rbp), %rax	#, tmp155
	movq	%rax, %rdi	# tmp155,
	call	_ZNSt4listIiSaIiEE5frontEv	#
	movl	(%rax), %eax	# *_12, _13
# c++11.cpp:532:     assert(l.front() == 2);
	cmpl	$2, %eax	#, _13
	je	.L352	#,
# c++11.cpp:532:     assert(l.front() == 2);
	movl	$_ZZ12container_11vE19__PRETTY_FUNCTION__, %ecx	#,
	movl	$532, %edx	#,
	movl	$.LC1, %esi	#,
	movl	$.LC67, %edi	#,
	call	__assert_fail	#
.L352:
# c++11.cpp:533:     l.sort();
	leaq	-144(%rbp), %rax	#, tmp156
	movq	%rax, %rdi	# tmp156,
	call	_ZNSt4listIiSaIiEE4sortEv	#
# c++11.cpp:535:     deque<int> d;
	leaq	-224(%rbp), %rax	#, tmp157
	movq	%rax, %rdi	# tmp157,
	call	_ZNSt5dequeIiSaIiEEC1Ev	#
.LEHE20:
# c++11.cpp:536:     test_list_container(d);
	leaq	-224(%rbp), %rax	#, tmp158
	movq	%rax, %rdi	# tmp158,
.LEHB21:
	call	_Z19test_list_containerISt5dequeIiSaIiEEEvRT_	#
# c++11.cpp:537:     d.emplace_back(0);
	movl	$0, -40(%rbp)	#, D.190281
	leaq	-40(%rbp), %rdx	#, tmp159
	leaq	-224(%rbp), %rax	#, tmp160
	movq	%rdx, %rsi	# tmp159,
	movq	%rax, %rdi	# tmp160,
	call	_ZNSt5dequeIiSaIiEE12emplace_backIJiEEEvDpOT_	#
# c++11.cpp:539:     stack<int> s, s2;
	leaq	-304(%rbp), %rax	#, tmp161
	movq	%rax, %rdi	# tmp161,
	call	_ZNSt5stackIiSt5dequeIiSaIiEEEC1IS2_vEEv	#
.LEHE21:
# c++11.cpp:539:     stack<int> s, s2;
	leaq	-384(%rbp), %rax	#, tmp162
	movq	%rax, %rdi	# tmp162,
.LEHB22:
	call	_ZNSt5stackIiSt5dequeIiSaIiEEEC1IS2_vEEv	#
.LEHE22:
# c++11.cpp:540:     s.emplace(1);
	movl	$1, -36(%rbp)	#, D.190641
	leaq	-36(%rbp), %rdx	#, tmp163
	leaq	-304(%rbp), %rax	#, tmp164
	movq	%rdx, %rsi	# tmp163,
	movq	%rax, %rdi	# tmp164,
.LEHB23:
	call	_ZNSt5stackIiSt5dequeIiSaIiEEE7emplaceIJiEEEvDpOT_	#
.LEHE23:
# c++11.cpp:541:     s.swap(s2);
	leaq	-384(%rbp), %rdx	#, tmp165
	leaq	-304(%rbp), %rax	#, tmp166
	movq	%rdx, %rsi	# tmp165,
	movq	%rax, %rdi	# tmp166,
	call	_ZNSt5stackIiSt5dequeIiSaIiEEE4swapERS3_	#
# c++11.cpp:539:     stack<int> s, s2;
	leaq	-384(%rbp), %rax	#, tmp167
	movq	%rax, %rdi	# tmp167,
	call	_ZNSt5stackIiSt5dequeIiSaIiEEED1Ev	#
	leaq	-304(%rbp), %rax	#, tmp168
	movq	%rax, %rdi	# tmp168,
	call	_ZNSt5stackIiSt5dequeIiSaIiEEED1Ev	#
# c++11.cpp:535:     deque<int> d;
	leaq	-224(%rbp), %rax	#, tmp169
	movq	%rax, %rdi	# tmp169,
	call	_ZNSt5dequeIiSaIiEED1Ev	#
# c++11.cpp:528:     list<int> l;
	leaq	-144(%rbp), %rax	#, tmp170
	movq	%rax, %rdi	# tmp170,
	call	_ZNSt4listIiSaIiEED1Ev	#
# c++11.cpp:520:     forward_list<int> fl;
	leaq	-128(%rbp), %rax	#, tmp171
	movq	%rax, %rdi	# tmp171,
	call	_ZNSt12forward_listIiSaIiEED1Ev	#
# c++11.cpp:505:     vector<int> v = { 1, 2, 3 };
	leaq	-112(%rbp), %rax	#, tmp172
	movq	%rax, %rdi	# tmp172,
	call	_ZNSt6vectorIiSaIiEED1Ev	#
# c++11.cpp:542: }
	jmp	.L367	#
.L360:
	movq	%rax, %rbx	#, tmp174
	leaq	-85(%rbp), %rax	#, tmp173
	movq	%rax, %rdi	# tmp173,
	call	_ZNSaIiED1Ev	#
	movq	%rbx, %rax	# tmp174, D.261718
	movq	%rax, %rdi	# D.261718,
.LEHB24:
	call	_Unwind_Resume	#
.L366:
	movq	%rax, %rbx	#, tmp177
# c++11.cpp:539:     stack<int> s, s2;
	leaq	-384(%rbp), %rax	#, tmp175
	movq	%rax, %rdi	# tmp175,
	call	_ZNSt5stackIiSt5dequeIiSaIiEEED1Ev	#
	jmp	.L355	#
.L365:
	movq	%rax, %rbx	#, tmp176
.L355:
# c++11.cpp:539:     stack<int> s, s2;
	leaq	-304(%rbp), %rax	#, tmp180
	movq	%rax, %rdi	# tmp180,
	call	_ZNSt5stackIiSt5dequeIiSaIiEEED1Ev	#
	jmp	.L356	#
.L364:
	movq	%rax, %rbx	#, tmp181
.L356:
# c++11.cpp:535:     deque<int> d;
	leaq	-224(%rbp), %rax	#, tmp183
	movq	%rax, %rdi	# tmp183,
	call	_ZNSt5dequeIiSaIiEED1Ev	#
	jmp	.L357	#
.L363:
	movq	%rax, %rbx	#, tmp184
.L357:
# c++11.cpp:528:     list<int> l;
	leaq	-144(%rbp), %rax	#, tmp186
	movq	%rax, %rdi	# tmp186,
	call	_ZNSt4listIiSaIiEED1Ev	#
	jmp	.L358	#
.L362:
	movq	%rax, %rbx	#, tmp187
.L358:
# c++11.cpp:520:     forward_list<int> fl;
	leaq	-128(%rbp), %rax	#, tmp189
	movq	%rax, %rdi	# tmp189,
	call	_ZNSt12forward_listIiSaIiEED1Ev	#
	jmp	.L359	#
.L361:
	movq	%rax, %rbx	#, tmp190
.L359:
# c++11.cpp:505:     vector<int> v = { 1, 2, 3 };
	leaq	-112(%rbp), %rax	#, tmp192
	movq	%rax, %rdi	# tmp192,
	call	_ZNSt6vectorIiSaIiEED1Ev	#
	movq	%rbx, %rax	# tmp190, D.261719
	movq	%rax, %rdi	# D.261719,
	call	_Unwind_Resume	#
.LEHE24:
.L367:
# c++11.cpp:542: }
	addq	$360, %rsp	#,
	popq	%rbx	#
	popq	%r12	#
	popq	%r13	#
	popq	%rbp	#
	.cfi_def_cfa 7, 8
	ret
	.cfi_endproc
.LFE8074:
	.section	.gcc_except_table
.LLSDA8074:
	.byte	0xff
	.byte	0xff
	.byte	0x1
	.uleb128 .LLSDACSE8074-.LLSDACSB8074
.LLSDACSB8074:
	.uleb128 .LEHB17-.LFB8074
	.uleb128 .LEHE17-.LEHB17
	.uleb128 .L360-.LFB8074
	.uleb128 0
	.uleb128 .LEHB18-.LFB8074
	.uleb128 .LEHE18-.LEHB18
	.uleb128 .L361-.LFB8074
	.uleb128 0
	.uleb128 .LEHB19-.LFB8074
	.uleb128 .LEHE19-.LEHB19
	.uleb128 .L362-.LFB8074
	.uleb128 0
	.uleb128 .LEHB20-.LFB8074
	.uleb128 .LEHE20-.LEHB20
	.uleb128 .L363-.LFB8074
	.uleb128 0
	.uleb128 .LEHB21-.LFB8074
	.uleb128 .LEHE21-.LEHB21
	.uleb128 .L364-.LFB8074
	.uleb128 0
	.uleb128 .LEHB22-.LFB8074
	.uleb128 .LEHE22-.LEHB22
	.uleb128 .L365-.LFB8074
	.uleb128 0
	.uleb128 .LEHB23-.LFB8074
	.uleb128 .LEHE23-.LEHB23
	.uleb128 .L366-.LFB8074
	.uleb128 0
	.uleb128 .LEHB24-.LFB8074
	.uleb128 .LEHE24-.LEHB24
	.uleb128 0
	.uleb128 0
.LLSDACSE8074:
	.text
	.size	_Z12container_11v, .-_Z12container_11v
	.align 2
	.type	_ZZ7algo_11vENKUlhE_clEh, @function
_ZZ7algo_11vENKUlhE_clEh:
.LFB8082:
	.cfi_startproc
	pushq	%rbp	#
	.cfi_def_cfa_offset 16
	.cfi_offset 6, -16
	movq	%rsp, %rbp	#,
	.cfi_def_cfa_register 6
	movq	%rdi, -8(%rbp)	# __closure, __closure
	movl	%esi, %eax	# x, tmp89
	movb	%al, -12(%rbp)	# tmp90, x
# c++11.cpp:554:     v.erase(remove_if(v.begin(), v.end(), [](unsigned char x) { return x == 2; }), v.end());
	cmpb	$2, -12(%rbp)	#, x
	sete	%al	#, _2
	popq	%rbp	#
	.cfi_def_cfa 7, 8
	ret
	.cfi_endproc
.LFE8082:
	.size	_ZZ7algo_11vENKUlhE_clEh, .-_ZZ7algo_11vENKUlhE_clEh
	.align 2
	.type	_ZZ7algo_11vENKUlhE0_clEh, @function
_ZZ7algo_11vENKUlhE0_clEh:
.LFB8085:
	.cfi_startproc
	pushq	%rbp	#
	.cfi_def_cfa_offset 16
	.cfi_offset 6, -16
	movq	%rsp, %rbp	#,
	.cfi_def_cfa_register 6
	subq	$16, %rsp	#,
	movq	%rdi, -8(%rbp)	# __closure, __closure
	movl	%esi, %eax	# x, tmp90
	movb	%al, -12(%rbp)	# tmp91, x
# c++11.cpp:563:     s.erase(remove_if(s.begin(), s.end(), [](unsigned char x) { return isspace(x); }), s.end());
	movzbl	-12(%rbp), %eax	# x, _1
	movl	%eax, %edi	# _1,
	call	isspace	#
	leave
	.cfi_def_cfa 7, 8
	ret
	.cfi_endproc
.LFE8085:
	.size	_ZZ7algo_11vENKUlhE0_clEh, .-_ZZ7algo_11vENKUlhE0_clEh
	.section	.rodata
	.align 8
.LC68:
	.string	"find(begin(v), end(v), 0) == end(v)"
	.align 8
.LC69:
	.string	"find(begin(v), end(v), 1) != end(v)"
.LC70:
	.string	"v.size() == 2"
.LC71:
	.string	"r[0] > r[1]"
.LC72:
	.string	"1 2  3"
.LC73:
	.string	"123"
.LC74:
	.string	"s == \"123\""
	.text
	.globl	_Z7algo_11v
	.type	_Z7algo_11v, @function
_Z7algo_11v:
.LFB8081:
	.cfi_startproc
	.cfi_personality 0x3,__gxx_personality_v0
	.cfi_lsda 0x3,.LLSDA8081
	pushq	%rbp	#
	.cfi_def_cfa_offset 16
	.cfi_offset 6, -16
	movq	%rsp, %rbp	#,
	.cfi_def_cfa_register 6
	pushq	%r15	#
	pushq	%r14	#
	pushq	%r13	#
	pushq	%r12	#
	pushq	%rbx	#
	subq	$184, %rsp	#,
	.cfi_offset 15, -24
	.cfi_offset 14, -32
	.cfi_offset 13, -40
	.cfi_offset 12, -48
	.cfi_offset 3, -56
# c++11.cpp:548:     vector<int> v = { 1, 2, 3 };
	movl	$._128, %r12d	#, D.257396
	movl	$3, %r13d	#, D.257396
	leaq	-137(%rbp), %rax	#, tmp117
	movq	%rax, %rdi	# tmp117,
	call	_ZNSaIiEC1Ev	#
	leaq	-137(%rbp), %rdx	#, tmp118
	movq	%r12, %rsi	# D.257396, tmp119
	movq	%r13, %rdi	# D.257396,
	movq	%r12, %rcx	# D.257396, tmp120
	movq	%r13, %rbx	# D.257396,
	movq	%rbx, %rdi	#, tmp122
	leaq	-176(%rbp), %rax	#, tmp123
	movq	%rdx, %rcx	# tmp118,
	movq	%rdi, %rdx	# tmp122,
	movq	%rax, %rdi	# tmp123,
.LEHB25:
	call	_ZNSt6vectorIiSaIiEEC1ESt16initializer_listIiERKS0_	#
.LEHE25:
	leaq	-137(%rbp), %rax	#, tmp124
	movq	%rax, %rdi	# tmp124,
	call	_ZNSaIiED1Ev	#
# c++11.cpp:549:     assert(find(begin(v), end(v), 0) == end(v));
	leaq	-176(%rbp), %rax	#, tmp125
	movq	%rax, %rdi	# tmp125,
	call	_ZSt3endISt6vectorIiSaIiEEEDTcldtfp_3endEERT_	#
	movq	%rax, -136(%rbp)	# tmp127, D.190707
	movl	$0, -116(%rbp)	#, D.190705
	leaq	-176(%rbp), %rax	#, tmp128
	movq	%rax, %rdi	# tmp128,
	call	_ZSt3endISt6vectorIiSaIiEEEDTcldtfp_3endEERT_	#
	movq	%rax, %rbx	#, D.257397
	leaq	-176(%rbp), %rax	#, tmp129
	movq	%rax, %rdi	# tmp129,
	call	_ZSt5beginISt6vectorIiSaIiEEEDTcldtfp_5beginEERT_	#
	movq	%rax, %rcx	#, D.257398
	leaq	-116(%rbp), %rax	#, tmp130
	movq	%rax, %rdx	# tmp130,
	movq	%rbx, %rsi	# D.257397,
	movq	%rcx, %rdi	# D.257398,
.LEHB26:
	call	_ZSt4findIN9__gnu_cxx17__normal_iteratorIPiSt6vectorIiSaIiEEEEiET_S7_S7_RKT0_	#
	movq	%rax, -128(%rbp)	# tmp132, D.190706
	leaq	-136(%rbp), %rdx	#, tmp133
	leaq	-128(%rbp), %rax	#, tmp134
	movq	%rdx, %rsi	# tmp133,
	movq	%rax, %rdi	# tmp134,
	call	_ZN9__gnu_cxxeqIPiSt6vectorIiSaIiEEEEbRKNS_17__normal_iteratorIT_T0_EESA_	#
# c++11.cpp:549:     assert(find(begin(v), end(v), 0) == end(v));
	testb	%al, %al	# _1
	jne	.L373	#,
# c++11.cpp:549:     assert(find(begin(v), end(v), 0) == end(v));
	movl	$_ZZ7algo_11vE19__PRETTY_FUNCTION__, %ecx	#,
	movl	$549, %edx	#,
	movl	$.LC1, %esi	#,
	movl	$.LC68, %edi	#,
	call	__assert_fail	#
.L373:
# c++11.cpp:550:     assert(find(begin(v), end(v), 1) != end(v));
	leaq	-176(%rbp), %rax	#, tmp135
	movq	%rax, %rdi	# tmp135,
	call	_ZSt3endISt6vectorIiSaIiEEEDTcldtfp_3endEERT_	#
	movq	%rax, -112(%rbp)	# tmp137, D.190723
	movl	$1, -92(%rbp)	#, D.190721
	leaq	-176(%rbp), %rax	#, tmp138
	movq	%rax, %rdi	# tmp138,
	call	_ZSt3endISt6vectorIiSaIiEEEDTcldtfp_3endEERT_	#
	movq	%rax, %rbx	#, D.257402
	leaq	-176(%rbp), %rax	#, tmp139
	movq	%rax, %rdi	# tmp139,
	call	_ZSt5beginISt6vectorIiSaIiEEEDTcldtfp_5beginEERT_	#
	movq	%rax, %rcx	#, D.257403
	leaq	-92(%rbp), %rax	#, tmp140
	movq	%rax, %rdx	# tmp140,
	movq	%rbx, %rsi	# D.257402,
	movq	%rcx, %rdi	# D.257403,
	call	_ZSt4findIN9__gnu_cxx17__normal_iteratorIPiSt6vectorIiSaIiEEEEiET_S7_S7_RKT0_	#
.LEHE26:
	movq	%rax, -104(%rbp)	# tmp142, D.190722
	leaq	-112(%rbp), %rdx	#, tmp143
	leaq	-104(%rbp), %rax	#, tmp144
	movq	%rdx, %rsi	# tmp143,
	movq	%rax, %rdi	# tmp144,
	call	_ZN9__gnu_cxxneIPiSt6vectorIiSaIiEEEEbRKNS_17__normal_iteratorIT_T0_EESA_	#
# c++11.cpp:550:     assert(find(begin(v), end(v), 1) != end(v));
	testb	%al, %al	# _2
	jne	.L374	#,
# c++11.cpp:550:     assert(find(begin(v), end(v), 1) != end(v));
	movl	$_ZZ7algo_11vE19__PRETTY_FUNCTION__, %ecx	#,
	movl	$550, %edx	#,
	movl	$.LC1, %esi	#,
	movl	$.LC69, %edi	#,
	call	__assert_fail	#
.L374:
# c++11.cpp:554:     v.erase(remove_if(v.begin(), v.end(), [](unsigned char x) { return x == 2; }), v.end());
	leaq	-176(%rbp), %rax	#, tmp145
	movq	%rax, %rdi	# tmp145,
	call	_ZNSt6vectorIiSaIiEE3endEv	#
	movq	%rax, -80(%rbp)	# tmp147, D.190786
	leaq	-80(%rbp), %rdx	#, tmp148
	leaq	-88(%rbp), %rax	#, tmp149
	movq	%rdx, %rsi	# tmp148,
	movq	%rax, %rdi	# tmp149,
	call	_ZN9__gnu_cxx17__normal_iteratorIPKiSt6vectorIiSaIiEEEC1IPiEERKNS0_IT_NS_11__enable_ifIXsrSt10__are_sameIS9_S8_E7__valueES5_E6__typeEEE	#
	leaq	-176(%rbp), %rax	#, tmp150
	movq	%rax, %rdi	# tmp150,
	call	_ZNSt6vectorIiSaIiEE3endEv	#
	movq	%rax, %rbx	#, D.257408
	leaq	-176(%rbp), %rax	#, tmp151
	movq	%rax, %rdi	# tmp151,
	call	_ZNSt6vectorIiSaIiEE5beginEv	#
	subq	$8, %rsp	#,
	pushq	%r15	# D.257407
	movq	%rbx, %rsi	# D.257408,
	movq	%rax, %rdi	# D.257409,
.LEHB27:
	.cfi_escape 0x2e,0x10
	call	_ZSt9remove_ifIN9__gnu_cxx17__normal_iteratorIPiSt6vectorIiSaIiEEEEZ7algo_11vEUlhE_ET_S8_S8_T0_	#
	addq	$16, %rsp	#,
	movq	%rax, -64(%rbp)	# tmp153, D.190785
	leaq	-64(%rbp), %rdx	#, tmp154
	leaq	-72(%rbp), %rax	#, tmp155
	movq	%rdx, %rsi	# tmp154,
	movq	%rax, %rdi	# tmp155,
	call	_ZN9__gnu_cxx17__normal_iteratorIPKiSt6vectorIiSaIiEEEC1IPiEERKNS0_IT_NS_11__enable_ifIXsrSt10__are_sameIS9_S8_E7__valueES5_E6__typeEEE	#
	movq	-88(%rbp), %rdx	# D.190797, tmp156
	movq	-72(%rbp), %rcx	# D.190796, tmp157
	leaq	-176(%rbp), %rax	#, tmp158
	movq	%rcx, %rsi	# tmp157,
	movq	%rax, %rdi	# tmp158,
	.cfi_escape 0x2e,0
	call	_ZNSt6vectorIiSaIiEE5eraseEN9__gnu_cxx17__normal_iteratorIPKiS1_EES6_	#
.LEHE27:
# c++11.cpp:555:     assert(v.size() == 2);
	leaq	-176(%rbp), %rax	#, tmp159
	movq	%rax, %rdi	# tmp159,
	call	_ZNKSt6vectorIiSaIiEE4sizeEv	#
# c++11.cpp:555:     assert(v.size() == 2);
	cmpq	$2, %rax	#, _3
	je	.L375	#,
# c++11.cpp:555:     assert(v.size() == 2);
	movl	$_ZZ7algo_11vE19__PRETTY_FUNCTION__, %ecx	#,
	movl	$555, %edx	#,
	movl	$.LC1, %esi	#,
	movl	$.LC70, %edi	#,
	call	__assert_fail	#
.L375:
# c++11.cpp:557:     vector<int> r(v.size());
	leaq	-51(%rbp), %rax	#, tmp160
	movq	%rax, %rdi	# tmp160,
	call	_ZNSaIiEC1Ev	#
	leaq	-176(%rbp), %rax	#, tmp161
	movq	%rax, %rdi	# tmp161,
	call	_ZNKSt6vectorIiSaIiEE4sizeEv	#
	movq	%rax, %rcx	#, _4
	leaq	-51(%rbp), %rdx	#, tmp162
	leaq	-208(%rbp), %rax	#, tmp163
	movq	%rcx, %rsi	# _4,
	movq	%rax, %rdi	# tmp163,
.LEHB28:
	call	_ZNSt6vectorIiSaIiEEC1EmRKS0_	#
.LEHE28:
	leaq	-51(%rbp), %rax	#, tmp164
	movq	%rax, %rdi	# tmp164,
	call	_ZNSaIiED1Ev	#
# c++11.cpp:558:     reverse_copy(begin(v), end(v), r.begin());
	leaq	-208(%rbp), %rax	#, tmp165
	movq	%rax, %rdi	# tmp165,
	call	_ZNSt6vectorIiSaIiEE5beginEv	#
	movq	%rax, %r12	#, D.257413
	leaq	-176(%rbp), %rax	#, tmp166
	movq	%rax, %rdi	# tmp166,
	call	_ZSt3endISt6vectorIiSaIiEEEDTcldtfp_3endEERT_	#
	movq	%rax, %rbx	#, D.257414
	leaq	-176(%rbp), %rax	#, tmp167
	movq	%rax, %rdi	# tmp167,
	call	_ZSt5beginISt6vectorIiSaIiEEEDTcldtfp_5beginEERT_	#
	movq	%r12, %rdx	# D.257413,
	movq	%rbx, %rsi	# D.257414,
	movq	%rax, %rdi	# D.257415,
	call	_ZSt12reverse_copyIN9__gnu_cxx17__normal_iteratorIPiSt6vectorIiSaIiEEEES6_ET0_T_S8_S7_	#
# c++11.cpp:559:     assert(r[0] > r[1]);
	leaq	-208(%rbp), %rax	#, tmp168
	movl	$0, %esi	#,
	movq	%rax, %rdi	# tmp168,
	call	_ZNSt6vectorIiSaIiEEixEm	#
	movl	(%rax), %ebx	# *_5, _6
	leaq	-208(%rbp), %rax	#, tmp169
	movl	$1, %esi	#,
	movq	%rax, %rdi	# tmp169,
	call	_ZNSt6vectorIiSaIiEEixEm	#
	movl	(%rax), %eax	# *_7, _8
# c++11.cpp:559:     assert(r[0] > r[1]);
	cmpl	%eax, %ebx	# _8, _6
	jg	.L376	#,
# c++11.cpp:559:     assert(r[0] > r[1]);
	movl	$_ZZ7algo_11vE19__PRETTY_FUNCTION__, %ecx	#,
	movl	$559, %edx	#,
	movl	$.LC1, %esi	#,
	movl	$.LC71, %edi	#,
	call	__assert_fail	#
.L376:
# c++11.cpp:562:     string s = "1 2  3";
	leaq	-50(%rbp), %rax	#, tmp170
	movq	%rax, %rdi	# tmp170,
	call	_ZNSaIcEC1Ev	#
	leaq	-50(%rbp), %rdx	#, tmp171
	leaq	-216(%rbp), %rax	#, tmp172
	movl	$.LC72, %esi	#,
	movq	%rax, %rdi	# tmp172,
.LEHB29:
	call	_ZNSsC1EPKcRKSaIcE	#
.LEHE29:
	leaq	-50(%rbp), %rax	#, tmp173
	movq	%rax, %rdi	# tmp173,
	call	_ZNSaIcED1Ev	#
# c++11.cpp:563:     s.erase(remove_if(s.begin(), s.end(), [](unsigned char x) { return isspace(x); }), s.end());
	leaq	-216(%rbp), %rax	#, tmp174
	movq	%rax, %rdi	# tmp174,
.LEHB30:
	call	_ZNSs3endEv	#
	movq	%rax, %rbx	#, D.257419
	leaq	-216(%rbp), %rax	#, tmp175
	movq	%rax, %rdi	# tmp175,
	call	_ZNSs3endEv	#
# c++11.cpp:563:     s.erase(remove_if(s.begin(), s.end(), [](unsigned char x) { return isspace(x); }), s.end());
	movq	%rax, %r12	#, D.257421
	leaq	-216(%rbp), %rax	#, tmp176
	movq	%rax, %rdi	# tmp176,
	call	_ZNSs5beginEv	#
# c++11.cpp:563:     s.erase(remove_if(s.begin(), s.end(), [](unsigned char x) { return isspace(x); }), s.end());
	subq	$8, %rsp	#,
	pushq	%r14	# D.257420
	movq	%r12, %rsi	# D.257421,
	movq	%rax, %rdi	# D.257422,
	.cfi_escape 0x2e,0x10
	call	_ZSt9remove_ifIN9__gnu_cxx17__normal_iteratorIPcSsEEZ7algo_11vEUlhE0_ET_S5_S5_T0_	#
# c++11.cpp:563:     s.erase(remove_if(s.begin(), s.end(), [](unsigned char x) { return isspace(x); }), s.end());
	addq	$16, %rsp	#,
	movq	%rax, %rcx	#, D.257423
	leaq	-216(%rbp), %rax	#, tmp177
	movq	%rbx, %rdx	# D.257419,
	movq	%rcx, %rsi	# D.257423,
	movq	%rax, %rdi	# tmp177,
	.cfi_escape 0x2e,0
	call	_ZNSs5eraseEN9__gnu_cxx17__normal_iteratorIPcSsEES2_	#
.LEHE30:
# c++11.cpp:564:     assert(s == "123");
	leaq	-216(%rbp), %rax	#, tmp178
	movl	$.LC73, %esi	#,
	movq	%rax, %rdi	# tmp178,
	call	_ZSteqIcSt11char_traitsIcESaIcEEbRKSbIT_T0_T1_EPKS3_	#
# c++11.cpp:564:     assert(s == "123");
	testb	%al, %al	# _9
	jne	.L377	#,
# c++11.cpp:564:     assert(s == "123");
	movl	$_ZZ7algo_11vE19__PRETTY_FUNCTION__, %ecx	#,
	movl	$564, %edx	#,
	movl	$.LC1, %esi	#,
	movl	$.LC74, %edi	#,
	call	__assert_fail	#
.L377:
# c++11.cpp:562:     string s = "1 2  3";
	leaq	-216(%rbp), %rax	#, tmp179
	movq	%rax, %rdi	# tmp179,
	call	_ZNSsD1Ev	#
# c++11.cpp:557:     vector<int> r(v.size());
	leaq	-208(%rbp), %rax	#, tmp180
	movq	%rax, %rdi	# tmp180,
	call	_ZNSt6vectorIiSaIiEED1Ev	#
# c++11.cpp:548:     vector<int> v = { 1, 2, 3 };
	leaq	-176(%rbp), %rax	#, tmp181
	movq	%rax, %rdi	# tmp181,
	call	_ZNSt6vectorIiSaIiEED1Ev	#
# c++11.cpp:565: }
	jmp	.L391	#
.L385:
	movq	%rax, %rbx	#, tmp183
	leaq	-137(%rbp), %rax	#, tmp182
	movq	%rax, %rdi	# tmp182,
	call	_ZNSaIiED1Ev	#
	movq	%rbx, %rax	# tmp183, D.261726
	movq	%rax, %rdi	# D.261726,
.LEHB31:
	call	_Unwind_Resume	#
.L387:
	movq	%rax, %rbx	# tmp185, tmp184
	jmp	.L380	#
.L388:
	movq	%rax, %rbx	#, tmp189
	leaq	-51(%rbp), %rax	#, tmp188
	movq	%rax, %rdi	# tmp188,
	call	_ZNSaIiED1Ev	#
	jmp	.L380	#
.L389:
	movq	%rax, %rbx	#, tmp193
	leaq	-50(%rbp), %rax	#, tmp191
	movq	%rax, %rdi	# tmp191,
	call	_ZNSaIcED1Ev	#
	jmp	.L383	#
.L390:
	movq	%rax, %rbx	#, tmp197
# c++11.cpp:562:     string s = "1 2  3";
	leaq	-216(%rbp), %rax	#, tmp196
	movq	%rax, %rdi	# tmp196,
	call	_ZNSsD1Ev	#
.L383:
# c++11.cpp:557:     vector<int> r(v.size());
	leaq	-208(%rbp), %rax	#, tmp199
	movq	%rax, %rdi	# tmp199,
	call	_ZNSt6vectorIiSaIiEED1Ev	#
	jmp	.L380	#
.L386:
	movq	%rax, %rbx	#, tmp184
.L380:
# c++11.cpp:548:     vector<int> v = { 1, 2, 3 };
	leaq	-176(%rbp), %rax	#, tmp200
	movq	%rax, %rdi	# tmp200,
	call	_ZNSt6vectorIiSaIiEED1Ev	#
	movq	%rbx, %rax	# tmp184, D.261727
	movq	%rax, %rdi	# D.261727,
	call	_Unwind_Resume	#
.LEHE31:
.L391:
# c++11.cpp:565: }
	leaq	-40(%rbp), %rsp	#,
	popq	%rbx	#
	popq	%r12	#
	popq	%r13	#
	popq	%r14	#
	popq	%r15	#
	popq	%rbp	#
	.cfi_def_cfa 7, 8
	ret
	.cfi_endproc
.LFE8081:
	.section	.gcc_except_table
.LLSDA8081:
	.byte	0xff
	.byte	0xff
	.byte	0x1
	.uleb128 .LLSDACSE8081-.LLSDACSB8081
.LLSDACSB8081:
	.uleb128 .LEHB25-.LFB8081
	.uleb128 .LEHE25-.LEHB25
	.uleb128 .L385-.LFB8081
	.uleb128 0
	.uleb128 .LEHB26-.LFB8081
	.uleb128 .LEHE26-.LEHB26
	.uleb128 .L386-.LFB8081
	.uleb128 0
	.uleb128 .LEHB27-.LFB8081
	.uleb128 .LEHE27-.LEHB27
	.uleb128 .L387-.LFB8081
	.uleb128 0
	.uleb128 .LEHB28-.LFB8081
	.uleb128 .LEHE28-.LEHB28
	.uleb128 .L388-.LFB8081
	.uleb128 0
	.uleb128 .LEHB29-.LFB8081
	.uleb128 .LEHE29-.LEHB29
	.uleb128 .L389-.LFB8081
	.uleb128 0
	.uleb128 .LEHB30-.LFB8081
	.uleb128 .LEHE30-.LEHB30
	.uleb128 .L390-.LFB8081
	.uleb128 0
	.uleb128 .LEHB31-.LFB8081
	.uleb128 .LEHE31-.LEHB31
	.uleb128 0
	.uleb128 0
.LLSDACSE8081:
	.text
	.size	_Z7algo_11v, .-_Z7algo_11v
	.align 2
	.type	_ZZ7sort_11vENKUliiE_clEii, @function
_ZZ7sort_11vENKUliiE_clEii:
.LFB8090:
	.cfi_startproc
	pushq	%rbp	#
	.cfi_def_cfa_offset 16
	.cfi_offset 6, -16
	movq	%rsp, %rbp	#,
	.cfi_def_cfa_register 6
	movq	%rdi, -8(%rbp)	# __closure, __closure
	movl	%esi, -12(%rbp)	# a, a
	movl	%edx, -16(%rbp)	# b, b
# c++11.cpp:584:         [](int a, int b) { return a > b; });
	movl	-12(%rbp), %eax	# a, tmp89
	cmpl	-16(%rbp), %eax	# b, tmp89
	setg	%al	#, _3
	popq	%rbp	#
	.cfi_def_cfa 7, 8
	ret
	.cfi_endproc
.LFE8090:
	.size	_ZZ7sort_11vENKUliiE_clEii, .-_ZZ7sort_11vENKUliiE_clEii
	.align 2
	.type	_ZZ7sort_11vENKUlRKSsS0_E0_clES0_S0_, @function
_ZZ7sort_11vENKUlRKSsS0_E0_clES0_S0_:
.LFB8093:
	.cfi_startproc
	pushq	%rbp	#
	.cfi_def_cfa_offset 16
	.cfi_offset 6, -16
	movq	%rsp, %rbp	#,
	.cfi_def_cfa_register 6
	subq	$32, %rsp	#,
	movq	%rdi, -8(%rbp)	# __closure, __closure
	movq	%rsi, -16(%rbp)	# a, a
	movq	%rdx, -24(%rbp)	# b, b
# c++11.cpp:588:         [](const string& a, const string& b) { return a > b; }
	movq	-24(%rbp), %rdx	# b, tmp89
	movq	-16(%rbp), %rax	# a, tmp90
	movq	%rdx, %rsi	# tmp89,
	movq	%rax, %rdi	# tmp90,
	call	_ZStgtIcSt11char_traitsIcESaIcEEbRKSbIT_T0_T1_ES8_	#
	leave
	.cfi_def_cfa 7, 8
	ret
	.cfi_endproc
.LFE8093:
	.size	_ZZ7sort_11vENKUlRKSsS0_E0_clES0_S0_, .-_ZZ7sort_11vENKUlRKSsS0_E0_clES0_S0_
	.section	.text._ZNSt8functionIFbRKSsS1_EED2Ev,"axG",@progbits,_ZNSt8functionIFbRKSsS1_EED5Ev,comdat
	.align 2
	.weak	_ZNSt8functionIFbRKSsS1_EED2Ev
	.type	_ZNSt8functionIFbRKSsS1_EED2Ev, @function
_ZNSt8functionIFbRKSsS1_EED2Ev:
.LFB8097:
	.cfi_startproc
	pushq	%rbp	#
	.cfi_def_cfa_offset 16
	.cfi_offset 6, -16
	movq	%rsp, %rbp	#,
	.cfi_def_cfa_register 6
	subq	$16, %rsp	#,
	movq	%rdi, -8(%rbp)	# this, this
# /opt/rh/devtoolset-7/root/usr/include/c++/7/bits/std_function.h:389:     class function<_Res(_ArgTypes...)>
	movq	-8(%rbp), %rax	# this, _1
	movq	%rax, %rdi	# _1,
	call	_ZNSt14_Function_baseD2Ev	#
	nop
	leave
	.cfi_def_cfa 7, 8
	ret
	.cfi_endproc
.LFE8097:
	.size	_ZNSt8functionIFbRKSsS1_EED2Ev, .-_ZNSt8functionIFbRKSsS1_EED2Ev
	.weak	_ZNSt8functionIFbRKSsS1_EED1Ev
	.set	_ZNSt8functionIFbRKSsS1_EED1Ev,_ZNSt8functionIFbRKSsS1_EED2Ev
	.section	.text._ZNSt3mapISsiSt8functionIFbRKSsS2_EESaISt4pairIS1_iEEED2Ev,"axG",@progbits,_ZNSt3mapISsiSt8functionIFbRKSsS2_EESaISt4pairIS1_iEEED5Ev,comdat
	.align 2
	.weak	_ZNSt3mapISsiSt8functionIFbRKSsS2_EESaISt4pairIS1_iEEED2Ev
	.type	_ZNSt3mapISsiSt8functionIFbRKSsS2_EESaISt4pairIS1_iEEED2Ev, @function
_ZNSt3mapISsiSt8functionIFbRKSsS2_EESaISt4pairIS1_iEEED2Ev:
.LFB8100:
	.cfi_startproc
	pushq	%rbp	#
	.cfi_def_cfa_offset 16
	.cfi_offset 6, -16
	movq	%rsp, %rbp	#,
	.cfi_def_cfa_register 6
	subq	$16, %rsp	#,
	movq	%rdi, -8(%rbp)	# this, this
# /opt/rh/devtoolset-7/root/usr/include/c++/7/bits/stl_map.h:294:       ~map() = default;
	movq	-8(%rbp), %rax	# this, _1
	movq	%rax, %rdi	# _1,
	call	_ZNSt8_Rb_treeISsSt4pairIKSsiESt10_Select1stIS2_ESt8functionIFbRS1_S6_EESaIS2_EED1Ev	#
	nop
	leave
	.cfi_def_cfa 7, 8
	ret
	.cfi_endproc
.LFE8100:
	.size	_ZNSt3mapISsiSt8functionIFbRKSsS2_EESaISt4pairIS1_iEEED2Ev, .-_ZNSt3mapISsiSt8functionIFbRKSsS2_EESaISt4pairIS1_iEEED2Ev
	.weak	_ZNSt3mapISsiSt8functionIFbRKSsS2_EESaISt4pairIS1_iEEED1Ev
	.set	_ZNSt3mapISsiSt8functionIFbRKSsS2_EESaISt4pairIS1_iEEED1Ev,_ZNSt3mapISsiSt8functionIFbRKSsS2_EESaISt4pairIS1_iEEED2Ev
	.section	.text._ZNSt4pairIKSsiED2Ev,"axG",@progbits,_ZNSt4pairIKSsiED5Ev,comdat
	.align 2
	.weak	_ZNSt4pairIKSsiED2Ev
	.type	_ZNSt4pairIKSsiED2Ev, @function
_ZNSt4pairIKSsiED2Ev:
.LFB8111:
	.cfi_startproc
	pushq	%rbp	#
	.cfi_def_cfa_offset 16
	.cfi_offset 6, -16
	movq	%rsp, %rbp	#,
	.cfi_def_cfa_register 6
	subq	$16, %rsp	#,
	movq	%rdi, -8(%rbp)	# this, this
# /opt/rh/devtoolset-7/root/usr/include/c++/7/bits/stl_pair.h:198:     struct pair
	movq	-8(%rbp), %rax	# this, _1
	movq	%rax, %rdi	# _1,
	call	_ZNSsD1Ev	#
	nop
	leave
	.cfi_def_cfa 7, 8
	ret
	.cfi_endproc
.LFE8111:
	.size	_ZNSt4pairIKSsiED2Ev, .-_ZNSt4pairIKSsiED2Ev
	.weak	_ZNSt4pairIKSsiED1Ev
	.set	_ZNSt4pairIKSsiED1Ev,_ZNSt4pairIKSsiED2Ev
	.section	.text._ZNSt4pairIKSsiEC1IRA2_KciLb1EEEOT_OT0_,"axG",@progbits,_ZNSt4pairIKSsiEC1IRA2_KciLb1EEEOT_OT0_,comdat
	.align 2
	.weak	_ZNSt4pairIKSsiEC1IRA2_KciLb1EEEOT_OT0_
	.type	_ZNSt4pairIKSsiEC1IRA2_KciLb1EEEOT_OT0_, @function
_ZNSt4pairIKSsiEC1IRA2_KciLb1EEEOT_OT0_:
.LFB8115:
	.cfi_startproc
	.cfi_personality 0x3,__gxx_personality_v0
	.cfi_lsda 0x3,.LLSDA8115
	pushq	%rbp	#
	.cfi_def_cfa_offset 16
	.cfi_offset 6, -16
	movq	%rsp, %rbp	#,
	.cfi_def_cfa_register 6
	pushq	%rbx	#
	subq	$56, %rsp	#,
	.cfi_offset 3, -24
	movq	%rdi, -40(%rbp)	# this, this
	movq	%rsi, -48(%rbp)	# __x, __x
	movq	%rdx, -56(%rbp)	# __y, __y
# /opt/rh/devtoolset-7/root/usr/include/c++/7/bits/stl_pair.h:331: 	: first(std::forward<_U1>(__x)), second(std::forward<_U2>(__y)) { }
	movq	-40(%rbp), %rbx	# this, _1
	leaq	-17(%rbp), %rax	#, tmp93
	movq	%rax, %rdi	# tmp93,
	call	_ZNSaIcEC1Ev	#
	movq	-48(%rbp), %rax	# __x, tmp94
	movq	%rax, %rdi	# tmp94,
	call	_ZSt7forwardIRA2_KcEOT_RNSt16remove_referenceIS3_E4typeE	#
	movq	%rax, %rcx	#, _2
	leaq	-17(%rbp), %rax	#, tmp95
	movq	%rax, %rdx	# tmp95,
	movq	%rcx, %rsi	# _2,
	movq	%rbx, %rdi	# _1,
.LEHB32:
	call	_ZNSsC1EPKcRKSaIcE	#
.LEHE32:
# /opt/rh/devtoolset-7/root/usr/include/c++/7/bits/stl_pair.h:331: 	: first(std::forward<_U1>(__x)), second(std::forward<_U2>(__y)) { }
	leaq	-17(%rbp), %rax	#, tmp96
	movq	%rax, %rdi	# tmp96,
	call	_ZNSaIcED1Ev	#
	movq	-56(%rbp), %rax	# __y, tmp97
	movq	%rax, %rdi	# tmp97,
	call	_ZSt7forwardIiEOT_RNSt16remove_referenceIS0_E4typeE	#
	movl	(%rax), %edx	# *_3, _4
	movq	-40(%rbp), %rax	# this, tmp98
	movl	%edx, 8(%rax)	# _4, this_7(D)->second
	jmp	.L402	#
.L401:
	movq	%rax, %rbx	#, tmp100
# /opt/rh/devtoolset-7/root/usr/include/c++/7/bits/stl_pair.h:331: 	: first(std::forward<_U1>(__x)), second(std::forward<_U2>(__y)) { }
	leaq	-17(%rbp), %rax	#, tmp99
	movq	%rax, %rdi	# tmp99,
	call	_ZNSaIcED1Ev	#
	movq	%rbx, %rax	# tmp100, D.261735
	movq	%rax, %rdi	# D.261735,
.LEHB33:
	call	_Unwind_Resume	#
.LEHE33:
.L402:
	addq	$56, %rsp	#,
	popq	%rbx	#
	popq	%rbp	#
	.cfi_def_cfa 7, 8
	ret
	.cfi_endproc
.LFE8115:
	.section	.gcc_except_table
.LLSDA8115:
	.byte	0xff
	.byte	0xff
	.byte	0x1
	.uleb128 .LLSDACSE8115-.LLSDACSB8115
.LLSDACSB8115:
	.uleb128 .LEHB32-.LFB8115
	.uleb128 .LEHE32-.LEHB32
	.uleb128 .L401-.LFB8115
	.uleb128 0
	.uleb128 .LEHB33-.LFB8115
	.uleb128 .LEHE33-.LEHB33
	.uleb128 0
	.uleb128 0
.LLSDACSE8115:
	.section	.text._ZNSt4pairIKSsiEC1IRA2_KciLb1EEEOT_OT0_,"axG",@progbits,_ZNSt4pairIKSsiEC1IRA2_KciLb1EEEOT_OT0_,comdat
	.size	_ZNSt4pairIKSsiEC1IRA2_KciLb1EEEOT_OT0_, .-_ZNSt4pairIKSsiEC1IRA2_KciLb1EEEOT_OT0_
	.section	.text._ZNSt3mapISsiSt8functionIFbRKSsS2_EESaISt4pairIS1_iEEEC2ERKS8_,"axG",@progbits,_ZNSt3mapISsiSt8functionIFbRKSsS2_EESaISt4pairIS1_iEEEC5ERKS8_,comdat
	.align 2
	.weak	_ZNSt3mapISsiSt8functionIFbRKSsS2_EESaISt4pairIS1_iEEEC2ERKS8_
	.type	_ZNSt3mapISsiSt8functionIFbRKSsS2_EESaISt4pairIS1_iEEEC2ERKS8_, @function
_ZNSt3mapISsiSt8functionIFbRKSsS2_EESaISt4pairIS1_iEEEC2ERKS8_:
.LFB8117:
	.cfi_startproc
	pushq	%rbp	#
	.cfi_def_cfa_offset 16
	.cfi_offset 6, -16
	movq	%rsp, %rbp	#,
	.cfi_def_cfa_register 6
	subq	$16, %rsp	#,
	movq	%rdi, -8(%rbp)	# this, this
	movq	%rsi, -16(%rbp)	# D.192880, D.192880
# /opt/rh/devtoolset-7/root/usr/include/c++/7/bits/stl_map.h:199:       map(const map&) = default;
	movq	-8(%rbp), %rax	# this, _1
	movq	-16(%rbp), %rdx	# D.192880, _2
	movq	%rdx, %rsi	# _2,
	movq	%rax, %rdi	# _1,
	call	_ZNSt8_Rb_treeISsSt4pairIKSsiESt10_Select1stIS2_ESt8functionIFbRS1_S6_EESaIS2_EEC1ERKSA_	#
	nop
	leave
	.cfi_def_cfa 7, 8
	ret
	.cfi_endproc
.LFE8117:
	.size	_ZNSt3mapISsiSt8functionIFbRKSsS2_EESaISt4pairIS1_iEEEC2ERKS8_, .-_ZNSt3mapISsiSt8functionIFbRKSsS2_EESaISt4pairIS1_iEEEC2ERKS8_
	.weak	_ZNSt3mapISsiSt8functionIFbRKSsS2_EESaISt4pairIS1_iEEEC1ERKS8_
	.set	_ZNSt3mapISsiSt8functionIFbRKSsS2_EESaISt4pairIS1_iEEEC1ERKS8_,_ZNSt3mapISsiSt8functionIFbRKSsS2_EESaISt4pairIS1_iEEEC2ERKS8_
	.section	.text._ZNSt4pairISsiED2Ev,"axG",@progbits,_ZNSt4pairISsiED5Ev,comdat
	.align 2
	.weak	_ZNSt4pairISsiED2Ev
	.type	_ZNSt4pairISsiED2Ev, @function
_ZNSt4pairISsiED2Ev:
.LFB8128:
	.cfi_startproc
	pushq	%rbp	#
	.cfi_def_cfa_offset 16
	.cfi_offset 6, -16
	movq	%rsp, %rbp	#,
	.cfi_def_cfa_register 6
	subq	$16, %rsp	#,
	movq	%rdi, -8(%rbp)	# this, this
# /opt/rh/devtoolset-7/root/usr/include/c++/7/bits/stl_pair.h:198:     struct pair
	movq	-8(%rbp), %rax	# this, _1
	movq	%rax, %rdi	# _1,
	call	_ZNSsD1Ev	#
	nop
	leave
	.cfi_def_cfa 7, 8
	ret
	.cfi_endproc
.LFE8128:
	.size	_ZNSt4pairISsiED2Ev, .-_ZNSt4pairISsiED2Ev
	.weak	_ZNSt4pairISsiED1Ev
	.set	_ZNSt4pairISsiED1Ev,_ZNSt4pairISsiED2Ev
	.section	.text._ZNSt4pairISsiEC1IRA2_KciLb1EEEOT_OT0_,"axG",@progbits,_ZNSt4pairISsiEC1IRA2_KciLb1EEEOT_OT0_,comdat
	.align 2
	.weak	_ZNSt4pairISsiEC1IRA2_KciLb1EEEOT_OT0_
	.type	_ZNSt4pairISsiEC1IRA2_KciLb1EEEOT_OT0_, @function
_ZNSt4pairISsiEC1IRA2_KciLb1EEEOT_OT0_:
.LFB8132:
	.cfi_startproc
	.cfi_personality 0x3,__gxx_personality_v0
	.cfi_lsda 0x3,.LLSDA8132
	pushq	%rbp	#
	.cfi_def_cfa_offset 16
	.cfi_offset 6, -16
	movq	%rsp, %rbp	#,
	.cfi_def_cfa_register 6
	pushq	%rbx	#
	subq	$56, %rsp	#,
	.cfi_offset 3, -24
	movq	%rdi, -40(%rbp)	# this, this
	movq	%rsi, -48(%rbp)	# __x, __x
	movq	%rdx, -56(%rbp)	# __y, __y
# /opt/rh/devtoolset-7/root/usr/include/c++/7/bits/stl_pair.h:331: 	: first(std::forward<_U1>(__x)), second(std::forward<_U2>(__y)) { }
	movq	-40(%rbp), %rbx	# this, _1
	leaq	-17(%rbp), %rax	#, tmp93
	movq	%rax, %rdi	# tmp93,
	call	_ZNSaIcEC1Ev	#
	movq	-48(%rbp), %rax	# __x, tmp94
	movq	%rax, %rdi	# tmp94,
	call	_ZSt7forwardIRA2_KcEOT_RNSt16remove_referenceIS3_E4typeE	#
	movq	%rax, %rcx	#, _2
	leaq	-17(%rbp), %rax	#, tmp95
	movq	%rax, %rdx	# tmp95,
	movq	%rcx, %rsi	# _2,
	movq	%rbx, %rdi	# _1,
.LEHB34:
	call	_ZNSsC1EPKcRKSaIcE	#
.LEHE34:
# /opt/rh/devtoolset-7/root/usr/include/c++/7/bits/stl_pair.h:331: 	: first(std::forward<_U1>(__x)), second(std::forward<_U2>(__y)) { }
	leaq	-17(%rbp), %rax	#, tmp96
	movq	%rax, %rdi	# tmp96,
	call	_ZNSaIcED1Ev	#
	movq	-56(%rbp), %rax	# __y, tmp97
	movq	%rax, %rdi	# tmp97,
	call	_ZSt7forwardIiEOT_RNSt16remove_referenceIS0_E4typeE	#
	movl	(%rax), %edx	# *_3, _4
	movq	-40(%rbp), %rax	# this, tmp98
	movl	%edx, 8(%rax)	# _4, this_7(D)->second
	jmp	.L408	#
.L407:
	movq	%rax, %rbx	#, tmp100
# /opt/rh/devtoolset-7/root/usr/include/c++/7/bits/stl_pair.h:331: 	: first(std::forward<_U1>(__x)), second(std::forward<_U2>(__y)) { }
	leaq	-17(%rbp), %rax	#, tmp99
	movq	%rax, %rdi	# tmp99,
	call	_ZNSaIcED1Ev	#
	movq	%rbx, %rax	# tmp100, D.261736
	movq	%rax, %rdi	# D.261736,
.LEHB35:
	call	_Unwind_Resume	#
.LEHE35:
.L408:
	addq	$56, %rsp	#,
	popq	%rbx	#
	popq	%rbp	#
	.cfi_def_cfa 7, 8
	ret
	.cfi_endproc
.LFE8132:
	.section	.gcc_except_table
.LLSDA8132:
	.byte	0xff
	.byte	0xff
	.byte	0x1
	.uleb128 .LLSDACSE8132-.LLSDACSB8132
.LLSDACSB8132:
	.uleb128 .LEHB34-.LFB8132
	.uleb128 .LEHE34-.LEHB34
	.uleb128 .L407-.LFB8132
	.uleb128 0
	.uleb128 .LEHB35-.LFB8132
	.uleb128 .LEHE35-.LEHB35
	.uleb128 0
	.uleb128 0
.LLSDACSE8132:
	.section	.text._ZNSt4pairISsiEC1IRA2_KciLb1EEEOT_OT0_,"axG",@progbits,_ZNSt4pairISsiEC1IRA2_KciLb1EEEOT_OT0_,comdat
	.size	_ZNSt4pairISsiEC1IRA2_KciLb1EEEOT_OT0_, .-_ZNSt4pairISsiEC1IRA2_KciLb1EEEOT_OT0_
	.text
	.align 2
	.type	_ZZ7sort_11vENKUlRKSt4pairISsiES2_E1_clES2_S2_, @function
_ZZ7sort_11vENKUlRKSt4pairISsiES2_E1_clES2_S2_:
.LFB8133:
	.cfi_startproc
	pushq	%rbp	#
	.cfi_def_cfa_offset 16
	.cfi_offset 6, -16
	movq	%rsp, %rbp	#,
	.cfi_def_cfa_register 6
	movq	%rdi, -8(%rbp)	# __closure, __closure
	movq	%rsi, -16(%rbp)	# l, l
	movq	%rdx, -24(%rbp)	# r, r
# c++11.cpp:606:         [](const pair& l, const pair& r) { return l.second < r.second; });
	movq	-16(%rbp), %rax	# l, tmp91
	movl	8(%rax), %edx	# l_4(D)->second, _1
	movq	-24(%rbp), %rax	# r, tmp92
	movl	8(%rax), %eax	# r_5(D)->second, _2
	cmpl	%eax, %edx	# _2, _1
	setl	%al	#, _6
	popq	%rbp	#
	.cfi_def_cfa 7, 8
	ret
	.cfi_endproc
.LFE8133:
	.size	_ZZ7sort_11vENKUlRKSt4pairISsiES2_E1_clES2_S2_, .-_ZZ7sort_11vENKUlRKSt4pairISsiES2_E1_clES2_S2_
	.section	.text._ZNSt3setISt4pairISsiE4compSaIS1_EED2Ev,"axG",@progbits,_ZNSt3setISt4pairISsiE4compSaIS1_EED5Ev,comdat
	.align 2
	.weak	_ZNSt3setISt4pairISsiE4compSaIS1_EED2Ev
	.type	_ZNSt3setISt4pairISsiE4compSaIS1_EED2Ev, @function
_ZNSt3setISt4pairISsiE4compSaIS1_EED2Ev:
.LFB8137:
	.cfi_startproc
	pushq	%rbp	#
	.cfi_def_cfa_offset 16
	.cfi_offset 6, -16
	movq	%rsp, %rbp	#,
	.cfi_def_cfa_register 6
	subq	$16, %rsp	#,
	movq	%rdi, -8(%rbp)	# this, this
# /opt/rh/devtoolset-7/root/usr/include/c++/7/bits/stl_set.h:271:       ~set() = default;
	movq	-8(%rbp), %rax	# this, _1
	movq	%rax, %rdi	# _1,
	call	_ZNSt8_Rb_treeISt4pairISsiES1_St9_IdentityIS1_E4compSaIS1_EED1Ev	#
	nop
	leave
	.cfi_def_cfa 7, 8
	ret
	.cfi_endproc
.LFE8137:
	.size	_ZNSt3setISt4pairISsiE4compSaIS1_EED2Ev, .-_ZNSt3setISt4pairISsiE4compSaIS1_EED2Ev
	.weak	_ZNSt3setISt4pairISsiE4compSaIS1_EED1Ev
	.set	_ZNSt3setISt4pairISsiE4compSaIS1_EED1Ev,_ZNSt3setISt4pairISsiE4compSaIS1_EED2Ev
	.section	.rodata
.LC75:
	.string	"a"
.LC76:
	.string	"b"
.LC77:
	.string	"c"
.LC78:
	.string	"reverse.begin()->first == \"c\""
.LC79:
	.string	"reverse.begin()->second == 0"
.LC80:
	.string	"vec.begin()->first == \"c\""
.LC81:
	.string	"t.begin()->first == \"c\""
	.text
	.globl	_Z7sort_11v
	.type	_Z7sort_11v, @function
_Z7sort_11v:
.LFB8089:
	.cfi_startproc
	.cfi_personality 0x3,__gxx_personality_v0
	.cfi_lsda 0x3,.LLSDA8089
	pushq	%rbp	#
	.cfi_def_cfa_offset 16
	.cfi_offset 6, -16
	movq	%rsp, %rbp	#,
	.cfi_def_cfa_register 6
	pushq	%r15	#
	pushq	%r14	#
	pushq	%r13	#
	pushq	%r12	#
	pushq	%rbx	#
	subq	$616, %rsp	#,
	.cfi_offset 15, -24
	.cfi_offset 14, -32
	.cfi_offset 13, -40
	.cfi_offset 12, -48
	.cfi_offset 3, -56
# c++11.cpp:581:     array<int, 10> s { 5, 7, 4, 2, 8, 6, 1, 9, 0, 3 };
	movl	$5, -464(%rbp)	#, s._M_elems
	movl	$7, -460(%rbp)	#, s._M_elems
	movl	$4, -456(%rbp)	#, s._M_elems
	movl	$2, -452(%rbp)	#, s._M_elems
	movl	$8, -448(%rbp)	#, s._M_elems
	movl	$6, -444(%rbp)	#, s._M_elems
	movl	$1, -440(%rbp)	#, s._M_elems
	movl	$9, -436(%rbp)	#, s._M_elems
	movl	$0, -432(%rbp)	#, s._M_elems
	movl	$3, -428(%rbp)	#, s._M_elems
# c++11.cpp:582:     sort(s.begin(), s.end(),
	leaq	-464(%rbp), %rax	#, tmp117
	movq	%rax, %rdi	# tmp117,
	call	_ZNSt5arrayIiLm10EE3endEv	#
	movq	%rax, %rbx	#, _1
	leaq	-464(%rbp), %rax	#, tmp118
	movq	%rax, %rdi	# tmp118,
	call	_ZNSt5arrayIiLm10EE5beginEv	#
	subq	$8, %rsp	#,
	movzbl	-643(%rbp), %ecx	# %sfp, D.257572
	pushq	%rcx	# D.257572
	movq	%rbx, %rsi	# _1,
	movq	%rax, %rdi	# _2,
.LEHB36:
	call	_ZSt4sortIPiZ7sort_11vEUliiE_EvT_S2_T0_	#
.LEHE36:
	addq	$16, %rsp	#,
# c++11.cpp:594:       };
	movl	$2, -364(%rbp)	#, D.195153
	leaq	-364(%rbp), %rdx	#, tmp119
	leaq	-416(%rbp), %rax	#, tmp120
	movl	$.LC75, %esi	#,
	movq	%rax, %rdi	# tmp120,
.LEHB37:
	call	_ZNSt4pairIKSsiEC1IRA2_KciLb1EEEOT_OT0_	#
.LEHE37:
# c++11.cpp:594:       };
	movl	$1, -360(%rbp)	#, D.195171
	leaq	-360(%rbp), %rax	#, tmp121
	leaq	-416(%rbp), %rdx	#, tmp122
	leaq	16(%rdx), %rcx	#, tmp123
	movq	%rax, %rdx	# tmp121,
	movl	$.LC76, %esi	#,
	movq	%rcx, %rdi	# tmp123,
.LEHB38:
	call	_ZNSt4pairIKSsiEC1IRA2_KciLb1EEEOT_OT0_	#
.LEHE38:
# c++11.cpp:594:       };
	movl	$0, -356(%rbp)	#, D.195173
	leaq	-356(%rbp), %rax	#, tmp124
	leaq	-416(%rbp), %rdx	#, tmp125
	leaq	32(%rdx), %rcx	#, tmp126
	movq	%rax, %rdx	# tmp124,
	movl	$.LC77, %esi	#,
	movq	%rcx, %rdi	# tmp126,
.LEHB39:
	call	_ZNSt4pairIKSsiEC1IRA2_KciLb1EEEOT_OT0_	#
.LEHE39:
# c++11.cpp:594:       };
	leaq	-416(%rbp), %rax	#, tmp127
	movq	%rax, -640(%rbp)	# tmp127, %sfp
	movq	$3, -632(%rbp)	#, %sfp
# c++11.cpp:587:     auto reverse = map<string, int, function<bool(const string&, const string&)>> {
	leaq	-272(%rbp), %rax	#, tmp128
	subq	$8, %rsp	#,
	movzbl	-642(%rbp), %ecx	# %sfp, D.257577
	pushq	%rcx	# D.257577
	movq	%rax, %rdi	# tmp128,
.LEHB40:
	.cfi_escape 0x2e,0x10
	call	_ZNSt8functionIFbRKSsS1_EEC1IZ7sort_11vEUlS1_S1_E0_vvEET_	#
.LEHE40:
	addq	$16, %rsp	#,
	leaq	-225(%rbp), %rax	#, tmp129
	movq	%rax, %rdi	# tmp129,
	call	_ZNSaISt4pairIKSsiEEC1Ev	#
	leaq	-225(%rbp), %rdx	#, tmp130
	leaq	-272(%rbp), %rcx	#, tmp131
	leaq	-352(%rbp), %rax	#, tmp132
	movq	%rcx, %rsi	# tmp131,
	movq	%rax, %rdi	# tmp132,
.LEHB41:
	.cfi_escape 0x2e,0
	call	_ZNSt3mapISsiSt8functionIFbRKSsS2_EESaISt4pairIS1_iEEEC1ERKS4_RKS7_	#
.LEHE41:
# c++11.cpp:594:       };
	movq	-640(%rbp), %rax	# %sfp, D.257573
	movq	-632(%rbp), %rdx	# %sfp, D.257573
	movq	%rax, %rcx	# D.257573, tmp133
	movq	%rdx, %rbx	# D.257573,
	leaq	-352(%rbp), %rax	#, tmp137
	movq	%rcx, %rsi	# tmp135,
	movq	%rax, %rdi	# tmp137,
.LEHB42:
	call	_ZNSt3mapISsiSt8functionIFbRKSsS2_EESaISt4pairIS1_iEEEaSESt16initializer_listIS6_E	#
	movq	%rax, %rdx	#, _3
	leaq	-544(%rbp), %rax	#, tmp138
	movq	%rdx, %rsi	# _3,
	movq	%rax, %rdi	# tmp138,
	call	_ZNSt3mapISsiSt8functionIFbRKSsS2_EESaISt4pairIS1_iEEEC1ERKS8_	#
.LEHE42:
	leaq	-352(%rbp), %rax	#, tmp139
	movq	%rax, %rdi	# tmp139,
	call	_ZNSt3mapISsiSt8functionIFbRKSsS2_EESaISt4pairIS1_iEEED1Ev	#
	leaq	-225(%rbp), %rax	#, tmp140
	movq	%rax, %rdi	# tmp140,
	call	_ZNSaISt4pairIKSsiEED1Ev	#
	leaq	-272(%rbp), %rax	#, tmp141
	movq	%rax, %rdi	# tmp141,
	call	_ZNSt8functionIFbRKSsS1_EED1Ev	#
	leaq	-416(%rbp), %rbx	#, _15
	addq	$48, %rbx	#, _15
.L414:
	leaq	-416(%rbp), %rax	#, tmp142
	cmpq	%rax, %rbx	# tmp142, _15
	je	.L413	#,
	subq	$16, %rbx	#, _15
# c++11.cpp:594:       };
	movq	%rbx, %rdi	# _15,
	call	_ZNSt4pairIKSsiED1Ev	#
	jmp	.L414	#
.L413:
# c++11.cpp:595:     assert(reverse.begin()->first == "c");
	leaq	-544(%rbp), %rax	#, tmp143
	movq	%rax, %rdi	# tmp143,
	call	_ZNSt3mapISsiSt8functionIFbRKSsS2_EESaISt4pairIS1_iEEE5beginEv	#
	movq	%rax, -224(%rbp)	# tmp145, D.195251
	leaq	-224(%rbp), %rax	#, tmp146
	movq	%rax, %rdi	# tmp146,
	call	_ZNKSt17_Rb_tree_iteratorISt4pairIKSsiEEptEv	#
	movl	$.LC77, %esi	#,
	movq	%rax, %rdi	# _5,
	call	_ZSteqIcSt11char_traitsIcESaIcEEbRKSbIT_T0_T1_EPKS3_	#
# c++11.cpp:595:     assert(reverse.begin()->first == "c");
	testb	%al, %al	# _6
	jne	.L415	#,
# c++11.cpp:595:     assert(reverse.begin()->first == "c");
	movl	$_ZZ7sort_11vE19__PRETTY_FUNCTION__, %ecx	#,
	movl	$595, %edx	#,
	movl	$.LC1, %esi	#,
	movl	$.LC78, %edi	#,
	call	__assert_fail	#
.L415:
# c++11.cpp:596:     assert(reverse.begin()->second == 0);
	leaq	-544(%rbp), %rax	#, tmp147
	movq	%rax, %rdi	# tmp147,
	call	_ZNSt3mapISsiSt8functionIFbRKSsS2_EESaISt4pairIS1_iEEE5beginEv	#
	movq	%rax, -216(%rbp)	# tmp149, D.195262
	leaq	-216(%rbp), %rax	#, tmp150
	movq	%rax, %rdi	# tmp150,
	call	_ZNKSt17_Rb_tree_iteratorISt4pairIKSsiEEptEv	#
	movl	8(%rax), %eax	# _7->second, _8
# c++11.cpp:596:     assert(reverse.begin()->second == 0);
	testl	%eax, %eax	# _8
	je	.L416	#,
# c++11.cpp:596:     assert(reverse.begin()->second == 0);
	movl	$_ZZ7sort_11vE19__PRETTY_FUNCTION__, %ecx	#,
	movl	$596, %edx	#,
	movl	$.LC1, %esi	#,
	movl	$.LC79, %edi	#,
	call	__assert_fail	#
.L416:
# c++11.cpp:604:     };
	movl	$2, -152(%rbp)	#, D.197965
	leaq	-152(%rbp), %rdx	#, tmp151
	leaq	-208(%rbp), %rax	#, tmp152
	movl	$.LC75, %esi	#,
	movq	%rax, %rdi	# tmp152,
.LEHB43:
	call	_ZNSt4pairISsiEC1IRA2_KciLb1EEEOT_OT0_	#
.LEHE43:
# c++11.cpp:604:     };
	movl	$1, -148(%rbp)	#, D.197983
	leaq	-148(%rbp), %rax	#, tmp153
	leaq	-208(%rbp), %rdx	#, tmp154
	leaq	16(%rdx), %rcx	#, tmp155
	movq	%rax, %rdx	# tmp153,
	movl	$.LC76, %esi	#,
	movq	%rcx, %rdi	# tmp155,
.LEHB44:
	call	_ZNSt4pairISsiEC1IRA2_KciLb1EEEOT_OT0_	#
.LEHE44:
# c++11.cpp:604:     };
	movl	$0, -144(%rbp)	#, D.197985
	leaq	-144(%rbp), %rax	#, tmp156
	leaq	-208(%rbp), %rdx	#, tmp157
	leaq	32(%rdx), %rcx	#, tmp158
	movq	%rax, %rdx	# tmp156,
	movl	$.LC77, %esi	#,
	movq	%rcx, %rdi	# tmp158,
.LEHB45:
	call	_ZNSt4pairISsiEC1IRA2_KciLb1EEEOT_OT0_	#
.LEHE45:
# c++11.cpp:604:     };
	leaq	-208(%rbp), %rax	#, tmp159
	movq	%rax, %r14	# tmp159, D.257584
	movl	$3, %r15d	#, D.257584
	leaq	-138(%rbp), %rax	#, tmp160
	movq	%rax, %rdi	# tmp160,
	call	_ZNSaISt4pairISsiEEC1Ev	#
	leaq	-138(%rbp), %rdx	#, tmp161
	movq	%r14, %rsi	# D.257584, tmp162
	movq	%r15, %rdi	# D.257584,
	movq	%r14, %rcx	# D.257584, tmp163
	movq	%r15, %rbx	# D.257584,
	movq	%rbx, %rdi	#, tmp165
	leaq	-576(%rbp), %rax	#, tmp166
	movq	%rdx, %rcx	# tmp161,
	movq	%rdi, %rdx	# tmp165,
	movq	%rax, %rdi	# tmp166,
.LEHB46:
	call	_ZNSt6vectorISt4pairISsiESaIS1_EEC1ESt16initializer_listIS1_ERKS2_	#
.LEHE46:
	leaq	-138(%rbp), %rax	#, tmp167
	movq	%rax, %rdi	# tmp167,
	call	_ZNSaISt4pairISsiEED1Ev	#
	leaq	-208(%rbp), %rbx	#, _17
	addq	$48, %rbx	#, _17
.L418:
	leaq	-208(%rbp), %rax	#, tmp168
	cmpq	%rax, %rbx	# tmp168, _17
	je	.L417	#,
	subq	$16, %rbx	#, _17
# c++11.cpp:604:     };
	movq	%rbx, %rdi	# _17,
	call	_ZNSt4pairISsiED1Ev	#
	jmp	.L418	#
.L417:
# c++11.cpp:605:     sort(vec.begin(), vec.end(),
	leaq	-576(%rbp), %rax	#, tmp169
	movq	%rax, %rdi	# tmp169,
	call	_ZNSt6vectorISt4pairISsiESaIS1_EE3endEv	#
	movq	%rax, %rbx	#, D.257589
	leaq	-576(%rbp), %rax	#, tmp170
	movq	%rax, %rdi	# tmp170,
	call	_ZNSt6vectorISt4pairISsiESaIS1_EE5beginEv	#
	subq	$8, %rsp	#,
	movzbl	-641(%rbp), %esi	# %sfp, D.257588
	pushq	%rsi	# D.257588
	movq	%rbx, %rsi	# D.257589,
	movq	%rax, %rdi	# D.257590,
.LEHB47:
	.cfi_escape 0x2e,0x10
	call	_ZSt4sortIN9__gnu_cxx17__normal_iteratorIPSt4pairISsiESt6vectorIS3_SaIS3_EEEEZ7sort_11vEUlRKS3_SA_E1_EvT_SC_T0_	#
.LEHE47:
	addq	$16, %rsp	#,
# c++11.cpp:607:     assert(vec.begin()->first == "c");
	leaq	-576(%rbp), %rax	#, tmp171
	movq	%rax, %rdi	# tmp171,
	call	_ZNSt6vectorISt4pairISsiESaIS1_EE5beginEv	#
	movq	%rax, -136(%rbp)	# tmp173, D.198206
	leaq	-136(%rbp), %rax	#, tmp174
	movq	%rax, %rdi	# tmp174,
	call	_ZNK9__gnu_cxx17__normal_iteratorIPSt4pairISsiESt6vectorIS2_SaIS2_EEEptEv	#
	movl	$.LC77, %esi	#,
	movq	%rax, %rdi	# _10,
	call	_ZSteqIcSt11char_traitsIcESaIcEEbRKSbIT_T0_T1_EPKS3_	#
# c++11.cpp:607:     assert(vec.begin()->first == "c");
	testb	%al, %al	# _11
	jne	.L419	#,
# c++11.cpp:607:     assert(vec.begin()->first == "c");
	movl	$_ZZ7sort_11vE19__PRETTY_FUNCTION__, %ecx	#,
	movl	$607, %edx	#,
	movl	$.LC1, %esi	#,
	movl	$.LC80, %edi	#,
	call	__assert_fail	#
.L419:
# c++11.cpp:613:     };
	movl	$2, -72(%rbp)	#, D.199563
	leaq	-72(%rbp), %rdx	#, tmp175
	leaq	-128(%rbp), %rax	#, tmp176
	movl	$.LC75, %esi	#,
	movq	%rax, %rdi	# tmp176,
.LEHB48:
	.cfi_escape 0x2e,0
	call	_ZNSt4pairISsiEC1IRA2_KciLb1EEEOT_OT0_	#
.LEHE48:
# c++11.cpp:613:     };
	movl	$1, -68(%rbp)	#, D.199565
	leaq	-68(%rbp), %rax	#, tmp177
	leaq	-128(%rbp), %rdx	#, tmp178
	leaq	16(%rdx), %rcx	#, tmp179
	movq	%rax, %rdx	# tmp177,
	movl	$.LC76, %esi	#,
	movq	%rcx, %rdi	# tmp179,
.LEHB49:
	call	_ZNSt4pairISsiEC1IRA2_KciLb1EEEOT_OT0_	#
.LEHE49:
# c++11.cpp:613:     };
	movl	$0, -64(%rbp)	#, D.199567
	leaq	-64(%rbp), %rax	#, tmp180
	leaq	-128(%rbp), %rdx	#, tmp181
	leaq	32(%rdx), %rcx	#, tmp182
	movq	%rax, %rdx	# tmp180,
	movl	$.LC77, %esi	#,
	movq	%rcx, %rdi	# tmp182,
.LEHB50:
	call	_ZNSt4pairISsiEC1IRA2_KciLb1EEEOT_OT0_	#
.LEHE50:
# c++11.cpp:613:     };
	leaq	-128(%rbp), %rax	#, tmp183
	movq	%rax, %r12	# tmp183, D.257594
	movl	$3, %r13d	#, D.257594
	leaq	-57(%rbp), %rax	#, tmp184
	movq	%rax, %rdi	# tmp184,
	call	_ZNSaISt4pairISsiEEC1Ev	#
	leaq	-57(%rbp), %r8	#, tmp185
	leaq	-58(%rbp), %rdx	#, tmp186
	movq	%r12, %rsi	# D.257594, tmp187
	movq	%r13, %rdi	# D.257594,
	movq	%r12, %rcx	# D.257594, tmp188
	movq	%r13, %rbx	# D.257594,
	movq	%rbx, %rdi	#, tmp190
	leaq	-624(%rbp), %rax	#, tmp191
	movq	%rdx, %rcx	# tmp186,
	movq	%rdi, %rdx	# tmp190,
	movq	%rax, %rdi	# tmp191,
.LEHB51:
	call	_ZNSt3setISt4pairISsiE4compSaIS1_EEC1ESt16initializer_listIS1_ERKS2_RKS3_	#
.LEHE51:
	leaq	-57(%rbp), %rax	#, tmp192
	movq	%rax, %rdi	# tmp192,
	call	_ZNSaISt4pairISsiEED1Ev	#
	leaq	-128(%rbp), %rbx	#, _19
	addq	$48, %rbx	#, _19
.L421:
	leaq	-128(%rbp), %rax	#, tmp193
	cmpq	%rax, %rbx	# tmp193, _19
	je	.L420	#,
	subq	$16, %rbx	#, _19
# c++11.cpp:613:     };
	movq	%rbx, %rdi	# _19,
	call	_ZNSt4pairISsiED1Ev	#
	jmp	.L421	#
.L420:
# c++11.cpp:614:     assert(t.begin()->first == "c");
	leaq	-624(%rbp), %rax	#, tmp194
	movq	%rax, %rdi	# tmp194,
	call	_ZNKSt3setISt4pairISsiE4compSaIS1_EE5beginEv	#
	movq	%rax, -56(%rbp)	# tmp196, D.199642
	leaq	-56(%rbp), %rax	#, tmp197
	movq	%rax, %rdi	# tmp197,
	call	_ZNKSt23_Rb_tree_const_iteratorISt4pairISsiEEptEv	#
	movl	$.LC77, %esi	#,
	movq	%rax, %rdi	# _13,
	call	_ZSteqIcSt11char_traitsIcESaIcEEbRKSbIT_T0_T1_EPKS3_	#
# c++11.cpp:614:     assert(t.begin()->first == "c");
	testb	%al, %al	# _14
	jne	.L422	#,
# c++11.cpp:614:     assert(t.begin()->first == "c");
	movl	$_ZZ7sort_11vE19__PRETTY_FUNCTION__, %ecx	#,
	movl	$614, %edx	#,
	movl	$.LC1, %esi	#,
	movl	$.LC81, %edi	#,
	call	__assert_fail	#
.L422:
# c++11.cpp:613:     };
	leaq	-624(%rbp), %rax	#, tmp198
	movq	%rax, %rdi	# tmp198,
	call	_ZNSt3setISt4pairISsiE4compSaIS1_EED1Ev	#
# c++11.cpp:604:     };
	leaq	-576(%rbp), %rax	#, tmp199
	movq	%rax, %rdi	# tmp199,
	call	_ZNSt6vectorISt4pairISsiESaIS1_EED1Ev	#
# c++11.cpp:594:       };
	leaq	-544(%rbp), %rax	#, tmp200
	movq	%rax, %rdi	# tmp200,
	call	_ZNSt3mapISsiSt8functionIFbRKSsS2_EESaISt4pairIS1_iEEED1Ev	#
# c++11.cpp:615: }
	jmp	.L460	#
.L450:
	movq	%rax, %rbx	#, tmp203
	leaq	-352(%rbp), %rax	#, tmp201
	movq	%rax, %rdi	# tmp201,
	call	_ZNSt3mapISsiSt8functionIFbRKSsS2_EESaISt4pairIS1_iEEED1Ev	#
	jmp	.L424	#
.L449:
	movq	%rax, %rbx	#, tmp202
.L424:
	leaq	-225(%rbp), %rax	#, tmp206
	movq	%rax, %rdi	# tmp206,
	call	_ZNSaISt4pairIKSsiEED1Ev	#
	leaq	-272(%rbp), %rax	#, tmp209
	movq	%rax, %rdi	# tmp209,
	call	_ZNSt8functionIFbRKSsS1_EED1Ev	#
	movq	%rbx, %rax	# tmp207, tmp210
	jmp	.L425	#
.L448:
.L425:
	movq	%rax, %r12	# tmp210, tmp212
	leaq	-416(%rbp), %rbx	#, _16
	addq	$48, %rbx	#, _16
.L427:
	leaq	-416(%rbp), %rax	#, tmp214
	cmpq	%rax, %rbx	# tmp214, _16
	je	.L426	#,
	subq	$16, %rbx	#, _16
# c++11.cpp:594:       };
	movq	%rbx, %rdi	# _16,
	call	_ZNSt4pairIKSsiED1Ev	#
	jmp	.L427	#
.L426:
	movq	%r12, %rax	# tmp212, tmp215
	jmp	.L430	#
.L447:
	jmp	.L430	#
.L446:
	jmp	.L430	#
.L445:
.L430:
	movq	%rax, %rdi	# D.261737,
.LEHB52:
	call	_Unwind_Resume	#
.L454:
	movq	%rax, %rbx	#, tmp223
	leaq	-138(%rbp), %rax	#, tmp221
	movq	%rax, %rdi	# tmp221,
	call	_ZNSaISt4pairISsiEED1Ev	#
	movq	%rbx, %r12	# tmp223, tmp222
	leaq	-208(%rbp), %rbx	#, _18
	addq	$48, %rbx	#, _18
.L433:
	leaq	-208(%rbp), %rax	#, tmp226
	cmpq	%rax, %rbx	# tmp226, _18
	je	.L432	#,
	subq	$16, %rbx	#, _18
# c++11.cpp:604:     };
	movq	%rbx, %rdi	# _18,
	call	_ZNSt4pairISsiED1Ev	#
	jmp	.L433	#
.L432:
	movq	%r12, %rax	# tmp222, tmp227
	jmp	.L436	#
.L453:
	jmp	.L436	#
.L452:
	jmp	.L436	#
.L451:
.L436:
	movq	%rax, %rbx	# tmp231, tmp233
	jmp	.L437	#
.L459:
	movq	%rax, %rbx	#, tmp237
	leaq	-57(%rbp), %rax	#, tmp235
	movq	%rax, %rdi	# tmp235,
	call	_ZNSaISt4pairISsiEED1Ev	#
	movq	%rbx, %r12	# tmp237, tmp236
	leaq	-128(%rbp), %rbx	#, _20
	addq	$48, %rbx	#, _20
.L440:
	leaq	-128(%rbp), %rax	#, tmp240
	cmpq	%rax, %rbx	# tmp240, _20
	je	.L439	#,
	subq	$16, %rbx	#, _20
# c++11.cpp:613:     };
	movq	%rbx, %rdi	# _20,
	call	_ZNSt4pairISsiED1Ev	#
	jmp	.L440	#
.L439:
	movq	%r12, %rax	# tmp236, tmp241
	jmp	.L443	#
.L458:
	jmp	.L443	#
.L457:
	jmp	.L443	#
.L456:
.L443:
	movq	%rax, %rbx	# tmp245, tmp247
	jmp	.L444	#
.L455:
	movq	%rax, %rbx	#, tmp247
.L444:
# c++11.cpp:604:     };
	leaq	-576(%rbp), %rax	#, tmp249
	movq	%rax, %rdi	# tmp249,
	call	_ZNSt6vectorISt4pairISsiESaIS1_EED1Ev	#
.L437:
# c++11.cpp:594:       };
	leaq	-544(%rbp), %rax	#, tmp250
	movq	%rax, %rdi	# tmp250,
	call	_ZNSt3mapISsiSt8functionIFbRKSsS2_EESaISt4pairIS1_iEEED1Ev	#
	movq	%rbx, %rax	# tmp233, D.261738
	movq	%rax, %rdi	# D.261738,
	call	_Unwind_Resume	#
.LEHE52:
.L460:
# c++11.cpp:615: }
	leaq	-40(%rbp), %rsp	#,
	popq	%rbx	#
	popq	%r12	#
	popq	%r13	#
	popq	%r14	#
	popq	%r15	#
	popq	%rbp	#
	.cfi_def_cfa 7, 8
	ret
	.cfi_endproc
.LFE8089:
	.section	.gcc_except_table
.LLSDA8089:
	.byte	0xff
	.byte	0xff
	.byte	0x1
	.uleb128 .LLSDACSE8089-.LLSDACSB8089
.LLSDACSB8089:
	.uleb128 .LEHB36-.LFB8089
	.uleb128 .LEHE36-.LEHB36
	.uleb128 0
	.uleb128 0
	.uleb128 .LEHB37-.LFB8089
	.uleb128 .LEHE37-.LEHB37
	.uleb128 .L445-.LFB8089
	.uleb128 0
	.uleb128 .LEHB38-.LFB8089
	.uleb128 .LEHE38-.LEHB38
	.uleb128 .L446-.LFB8089
	.uleb128 0
	.uleb128 .LEHB39-.LFB8089
	.uleb128 .LEHE39-.LEHB39
	.uleb128 .L447-.LFB8089
	.uleb128 0
	.uleb128 .LEHB40-.LFB8089
	.uleb128 .LEHE40-.LEHB40
	.uleb128 .L448-.LFB8089
	.uleb128 0
	.uleb128 .LEHB41-.LFB8089
	.uleb128 .LEHE41-.LEHB41
	.uleb128 .L449-.LFB8089
	.uleb128 0
	.uleb128 .LEHB42-.LFB8089
	.uleb128 .LEHE42-.LEHB42
	.uleb128 .L450-.LFB8089
	.uleb128 0
	.uleb128 .LEHB43-.LFB8089
	.uleb128 .LEHE43-.LEHB43
	.uleb128 .L451-.LFB8089
	.uleb128 0
	.uleb128 .LEHB44-.LFB8089
	.uleb128 .LEHE44-.LEHB44
	.uleb128 .L452-.LFB8089
	.uleb128 0
	.uleb128 .LEHB45-.LFB8089
	.uleb128 .LEHE45-.LEHB45
	.uleb128 .L453-.LFB8089
	.uleb128 0
	.uleb128 .LEHB46-.LFB8089
	.uleb128 .LEHE46-.LEHB46
	.uleb128 .L454-.LFB8089
	.uleb128 0
	.uleb128 .LEHB47-.LFB8089
	.uleb128 .LEHE47-.LEHB47
	.uleb128 .L455-.LFB8089
	.uleb128 0
	.uleb128 .LEHB48-.LFB8089
	.uleb128 .LEHE48-.LEHB48
	.uleb128 .L456-.LFB8089
	.uleb128 0
	.uleb128 .LEHB49-.LFB8089
	.uleb128 .LEHE49-.LEHB49
	.uleb128 .L457-.LFB8089
	.uleb128 0
	.uleb128 .LEHB50-.LFB8089
	.uleb128 .LEHE50-.LEHB50
	.uleb128 .L458-.LFB8089
	.uleb128 0
	.uleb128 .LEHB51-.LFB8089
	.uleb128 .LEHE51-.LEHB51
	.uleb128 .L459-.LFB8089
	.uleb128 0
	.uleb128 .LEHB52-.LFB8089
	.uleb128 .LEHE52-.LEHB52
	.uleb128 0
	.uleb128 0
.LLSDACSE8089:
	.text
	.size	_Z7sort_11v, .-_Z7sort_11v
	.type	_ZL10use_lambdaiSt8functionIFiiEE, @function
_ZL10use_lambdaiSt8functionIFiiEE:
.LFB8139:
	.cfi_startproc
	pushq	%rbp	#
	.cfi_def_cfa_offset 16
	.cfi_offset 6, -16
	movq	%rsp, %rbp	#,
	.cfi_def_cfa_register 6
	subq	$16, %rsp	#,
	movl	%edi, -4(%rbp)	# a, a
	movq	%rsi, -16(%rbp)	# f, f
# c++11.cpp:632:     return f(a);
	movl	-4(%rbp), %edx	# a, tmp89
	movq	-16(%rbp), %rax	# f, tmp90
	movl	%edx, %esi	# tmp89,
	movq	%rax, %rdi	# tmp90,
	call	_ZNKSt8functionIFiiEEclEi	#
# c++11.cpp:633: }
	leave
	.cfi_def_cfa 7, 8
	ret
	.cfi_endproc
.LFE8139:
	.size	_ZL10use_lambdaiSt8functionIFiiEE, .-_ZL10use_lambdaiSt8functionIFiiEE
	.local	_ZL3g_f
	.comm	_ZL3g_f,32,32
	.type	_ZL10set_lambdaOSt8functionIFiiEE, @function
_ZL10set_lambdaOSt8functionIFiiEE:
.LFB8140:
	.cfi_startproc
	pushq	%rbp	#
	.cfi_def_cfa_offset 16
	.cfi_offset 6, -16
	movq	%rsp, %rbp	#,
	.cfi_def_cfa_register 6
	subq	$16, %rsp	#,
	movq	%rdi, -8(%rbp)	# f, f
# c++11.cpp:639:     g_f = f;
	movq	-8(%rbp), %rax	# f, tmp87
	movq	%rax, %rsi	# tmp87,
	movl	$_ZL3g_f, %edi	#,
	call	_ZNSt8functionIFiiEEaSERKS1_	#
# c++11.cpp:640: }
	nop
	leave
	.cfi_def_cfa 7, 8
	ret
	.cfi_endproc
.LFE8140:
	.size	_ZL10set_lambdaOSt8functionIFiiEE, .-_ZL10set_lambdaOSt8functionIFiiEE
	.type	_ZL11call_lambdai, @function
_ZL11call_lambdai:
.LFB8141:
	.cfi_startproc
	pushq	%rbp	#
	.cfi_def_cfa_offset 16
	.cfi_offset 6, -16
	movq	%rsp, %rbp	#,
	.cfi_def_cfa_register 6
	subq	$16, %rsp	#,
	movl	%edi, -4(%rbp)	# a, a
# c++11.cpp:644:     return g_f(a);
	movl	-4(%rbp), %eax	# a, tmp89
	movl	%eax, %esi	# tmp89,
	movl	$_ZL3g_f, %edi	#,
	call	_ZNKSt8functionIFiiEEclEi	#
# c++11.cpp:645: }
	leave
	.cfi_def_cfa 7, 8
	ret
	.cfi_endproc
.LFE8141:
	.size	_ZL11call_lambdai, .-_ZL11call_lambdai
	.align 2
	.type	_ZZL14lambda_complexvENKUliE_clEi, @function
_ZZL14lambda_complexvENKUliE_clEi:
.LFB8143:
	.cfi_startproc
	pushq	%rbp	#
	.cfi_def_cfa_offset 16
	.cfi_offset 6, -16
	movq	%rsp, %rbp	#,
	.cfi_def_cfa_register 6
	movq	%rdi, -8(%rbp)	# __closure, __closure
	movl	%esi, -12(%rbp)	# a, a
# c++11.cpp:651:     auto increment = [](int a) -> int { return a + 1; };
	movl	-12(%rbp), %eax	# a, tmp89
	addl	$1, %eax	#, _2
	popq	%rbp	#
	.cfi_def_cfa 7, 8
	ret
	.cfi_endproc
.LFE8143:
	.size	_ZZL14lambda_complexvENKUliE_clEi, .-_ZZL14lambda_complexvENKUliE_clEi
	.align 2
	.type	_ZZL14lambda_complexvENKUliE0_clEi, @function
_ZZL14lambda_complexvENKUliE0_clEi:
.LFB8146:
	.cfi_startproc
	pushq	%rbp	#
	.cfi_def_cfa_offset 16
	.cfi_offset 6, -16
	movq	%rsp, %rbp	#,
	.cfi_def_cfa_register 6
	movq	%rdi, -8(%rbp)	# __closure, __closure
	movl	%esi, -12(%rbp)	# a, a
# c++11.cpp:660:     assert(use_lambda(1, [](int a) { return a + 1; }) == 2);
	movl	-12(%rbp), %eax	# a, tmp89
	addl	$1, %eax	#, _2
	popq	%rbp	#
	.cfi_def_cfa 7, 8
	ret
	.cfi_endproc
.LFE8146:
	.size	_ZZL14lambda_complexvENKUliE0_clEi, .-_ZZL14lambda_complexvENKUliE0_clEi
	.section	.rodata
.LC82:
	.string	"++x"
	.text
	.align 2
	.type	_ZZL14lambda_complexvENUlvE1_clEv, @function
_ZZL14lambda_complexvENUlvE1_clEv:
.LFB8149:
	.cfi_startproc
	pushq	%rbp	#
	.cfi_def_cfa_offset 16
	.cfi_offset 6, -16
	movq	%rsp, %rbp	#,
	.cfi_def_cfa_register 6
	subq	$16, %rsp	#,
	movq	%rdi, -8(%rbp)	# __closure, __closure
# c++11.cpp:663:     [x]() mutable { assert(++x); }();
	movq	-8(%rbp), %rax	# __closure, tmp90
	movl	(%rax), %eax	# __closure_5(D)->__x, _1
# c++11.cpp:663:     [x]() mutable { assert(++x); }();
	leal	1(%rax), %edx	#, _2
# c++11.cpp:663:     [x]() mutable { assert(++x); }();
	movq	-8(%rbp), %rax	# __closure, tmp91
	movl	%edx, (%rax)	# _2, __closure_5(D)->__x
# c++11.cpp:663:     [x]() mutable { assert(++x); }();
	movq	-8(%rbp), %rax	# __closure, tmp92
	movl	(%rax), %eax	# __closure_5(D)->__x, _3
# c++11.cpp:663:     [x]() mutable { assert(++x); }();
	testl	%eax, %eax	# _3
	jne	.L472	#,
# c++11.cpp:663:     [x]() mutable { assert(++x); }();
	movl	$_ZZZL14lambda_complexvENUlvE1_clEvE19__PRETTY_FUNCTION__, %ecx	#,
	movl	$663, %edx	#,
	movl	$.LC1, %esi	#,
	movl	$.LC82, %edi	#,
	call	__assert_fail	#
.L472:
# c++11.cpp:663:     [x]() mutable { assert(++x); }();
	nop
	leave
	.cfi_def_cfa 7, 8
	ret
	.cfi_endproc
.LFE8149:
	.size	_ZZL14lambda_complexvENUlvE1_clEv, .-_ZZL14lambda_complexvENUlvE1_clEv
	.section	.rodata
.LC83:
	.string	"increment(5) == 6"
.LC84:
	.string	"use_lambda(2, increment) == 3"
.LC85:
	.string	"call_lambda(3) == 4"
	.align 8
.LC86:
	.string	"use_lambda(1, [](int a) { return a + 1; }) == 2"
.LC87:
	.string	"x == 0"
	.text
	.type	_ZL14lambda_complexv, @function
_ZL14lambda_complexv:
.LFB8142:
	.cfi_startproc
